Archive member included to satisfy reference by file (symbol)

C:\Users\19156\Desktop\SRC\StdPeriphDriver\libISP573.a(ISP573.o)
                              ./StdPeriphDriver/CH57x_pwr.o (FLASH_EEPROM_CMD)
C:\Users\19156\Desktop\DualModeKeyboard\LIB\libCH57xBLE.a(message.o)
                              ./Profile/hiddev.o (tmos_msg_deallocate)
C:\Users\19156\Desktop\DualModeKeyboard\LIB\libCH57xBLE.a(tmos.o)
                              ./Profile/battservice.o (tmos_memcpy)
C:\Users\19156\Desktop\DualModeKeyboard\LIB\libCH57xBLE.a(tmos_hw.o)
                              C:\Users\19156\Desktop\DualModeKeyboard\LIB\libCH57xBLE.a(tmos.o) (RTC_Get32KClock)
C:\Users\19156\Desktop\DualModeKeyboard\LIB\libCH57xBLE.a(tmos_snv.o)
                              C:\Users\19156\Desktop\DualModeKeyboard\LIB\libCH57xBLE.a(tmos.o) (tmos_snv_init)
C:\Users\19156\Desktop\DualModeKeyboard\LIB\libCH57xBLE.a(gap.o)
                              ./Profile/hiddev.o (GAP_SetParamValue)
C:\Users\19156\Desktop\DualModeKeyboard\LIB\libCH57xBLE.a(gap_central.o)
                              C:\Users\19156\Desktop\DualModeKeyboard\LIB\libCH57xBLE.a(gap.o) (GAP_CentralParamInit)
C:\Users\19156\Desktop\DualModeKeyboard\LIB\libCH57xBLE.a(gap_peripheral.o)
                              C:\Users\19156\Desktop\DualModeKeyboard\LIB\libCH57xBLE.a(gap.o) (GAP_PeripheralParamInit)
C:\Users\19156\Desktop\DualModeKeyboard\LIB\libCH57xBLE.a(gapgattserver.o)
                              ./APP/app_ble.o (GGS_SetParameter)
C:\Users\19156\Desktop\DualModeKeyboard\LIB\libCH57xBLE.a(gatt.o)
                              ./Profile/battservice.o (GATT_bm_alloc)
C:\Users\19156\Desktop\DualModeKeyboard\LIB\libCH57xBLE.a(gatt_uuid.o)
                              ./Profile/battservice.o (reportRefUUID)
C:\Users\19156\Desktop\DualModeKeyboard\LIB\libCH57xBLE.a(gattclientapp.o)
                              C:\Users\19156\Desktop\DualModeKeyboard\LIB\libCH57xBLE.a(gatt.o) (gattGetClientStatus)
C:\Users\19156\Desktop\DualModeKeyboard\LIB\libCH57xBLE.a(gattservapp.o)
                              ./Profile/battservice.o (GATTServApp_ReadCharCfg)
C:\Users\19156\Desktop\DualModeKeyboard\LIB\libCH57xBLE.a(l2cap.o)
                              C:\Users\19156\Desktop\DualModeKeyboard\LIB\libCH57xBLE.a(gatt.o) (L2CAP_GetMTU)
C:\Users\19156\Desktop\DualModeKeyboard\LIB\libCH57xBLE.a(l2cap_input.o)
                              C:\Users\19156\Desktop\DualModeKeyboard\LIB\libCH57xBLE.a(l2cap.o) (l2capProcessRxData)
C:\Users\19156\Desktop\DualModeKeyboard\LIB\libCH57xBLE.a(l2cap_output.o)
                              C:\Users\19156\Desktop\DualModeKeyboard\LIB\libCH57xBLE.a(l2cap_input.o) (l2capNotifyData)
C:\Users\19156\Desktop\DualModeKeyboard\LIB\libCH57xBLE.a(l2cap_sdu.o)
                              C:\Users\19156\Desktop\DualModeKeyboard\LIB\libCH57xBLE.a(l2cap_input.o) (l2capBuildDisconnectRsp)
C:\Users\19156\Desktop\DualModeKeyboard\LIB\libCH57xBLE.a(linkdb.o)
                              C:\Users\19156\Desktop\DualModeKeyboard\LIB\libCH57xBLE.a(l2cap.o) (linkDB_Init)
C:\Users\19156\Desktop\DualModeKeyboard\LIB\libCH57xBLE.a(sm.o)
                              C:\Users\19156\Desktop\DualModeKeyboard\LIB\libCH57xBLE.a(gap.o) (smStartEncryption)
C:\Users\19156\Desktop\DualModeKeyboard\LIB\libCH57xBLE.a(host_input.o)
                              C:\Users\19156\Desktop\DualModeKeyboard\LIB\libCH57xBLE.a(gap.o) (gBleHostPara)
C:\Users\19156\Desktop\DualModeKeyboard\LIB\libCH57xBLE.a(host_output.o)
                              C:\Users\19156\Desktop\DualModeKeyboard\LIB\libCH57xBLE.a(gap.o) (HCI_DisconnectCmd)
C:\Users\19156\Desktop\DualModeKeyboard\LIB\libCH57xBLE.a(ll_connect.o)
                              C:\Users\19156\Desktop\DualModeKeyboard\LIB\libCH57xBLE.a(tmos.o) (LL_GetNextConnectEventTime)
C:\Users\19156\Desktop\DualModeKeyboard\LIB\libCH57xBLE.a(ll_core.o)
                              C:\Users\19156\Desktop\DualModeKeyboard\LIB\libCH57xBLE.a(ll_connect.o) (LL_CoreGetCore)
C:\Users\19156\Desktop\DualModeKeyboard\LIB\libCH57xBLE.a(ll_hop.o)
                              C:\Users\19156\Desktop\DualModeKeyboard\LIB\libCH57xBLE.a(ll_connect.o) (LL_HopGetChannel)
C:\Users\19156\Desktop\DualModeKeyboard\LIB\libCH57xBLE.a(ll_master.o)
                              C:\Users\19156\Desktop\DualModeKeyboard\LIB\libCH57xBLE.a(ll_connect.o) (ll_master_process)
C:\Users\19156\Desktop\DualModeKeyboard\LIB\libCH57xBLE.a(ll_pdu.o)
                              C:\Users\19156\Desktop\DualModeKeyboard\LIB\libCH57xBLE.a(ll_master.o) (LL_ConnectionUpdateReq)
C:\Users\19156\Desktop\DualModeKeyboard\LIB\libCH57xBLE.a(ll_report.o)
                              C:\Users\19156\Desktop\DualModeKeyboard\LIB\libCH57xBLE.a(ll_connect.o) (LL_ReportGenerateEvent)
C:\Users\19156\Desktop\DualModeKeyboard\LIB\libCH57xBLE.a(ll_scan.o)
                              C:\Users\19156\Desktop\DualModeKeyboard\LIB\libCH57xBLE.a(ll_master.o) (LL_ScanEnable)
C:\Users\19156\Desktop\DualModeKeyboard\LIB\libCH57xBLE.a(ll_slave.o)
                              C:\Users\19156\Desktop\DualModeKeyboard\LIB\libCH57xBLE.a(ll_connect.o) (ll_hw_timer_slave_recv_timeout)
C:\Users\19156\Desktop\DualModeKeyboard\LIB\libCH57xBLE.a(ll_whitelist.o)
                              C:\Users\19156\Desktop\DualModeKeyboard\LIB\libCH57xBLE.a(ll_scan.o) (LL_WhitelistLookup)
C:\Users\19156\Desktop\DualModeKeyboard\LIB\libCH57xBLE.a(aes.o)
                              C:\Users\19156\Desktop\DualModeKeyboard\LIB\libCH57xBLE.a(sm.o) (LL_Encrypt)
C:\Users\19156\Desktop\DualModeKeyboard\LIB\libCH57xBLE.a(bb.o)
                              C:\Users\19156\Desktop\DualModeKeyboard\LIB\libCH57xBLE.a(tmos.o) (BB_DevInit)
C:\Users\19156\Desktop\DualModeKeyboard\LIB\libCH57xBLE.a(dma.o)
                              C:\Users\19156\Desktop\DualModeKeyboard\LIB\libCH57xBLE.a(tmos.o) (DMA_DevInit)
C:\Users\19156\Desktop\DualModeKeyboard\LIB\libCH57xBLE.a(ip.o)
                              C:\Users\19156\Desktop\DualModeKeyboard\LIB\libCH57xBLE.a(ll_master.o) (ll_tx_wait_finish)
C:\Users\19156\Desktop\DualModeKeyboard\LIB\libCH57xBLE.a(lle.o)
                              C:\Users\19156\Desktop\DualModeKeyboard\LIB\libCH57xBLE.a(tmos.o) (LLE_DevInit)
C:\Users\19156\Desktop\DualModeKeyboard\LIB\libCH57xBLE.a(rf_fh.o)
                              C:\Users\19156\Desktop\DualModeKeyboard\LIB\libCH57xBLE.a(tmos.o) (RF_FrequencyHoppingChange)
C:\Users\19156\Desktop\DualModeKeyboard\LIB\libCH57xBLE.a(rfend.o)
                              C:\Users\19156\Desktop\DualModeKeyboard\LIB\libCH57xBLE.a(ip.o) (RFEND_DevInit)
C:\Users\19156\Desktop\DualModeKeyboard\LIB\libCH57xBLE.a(api_c.o)
                              C:\Users\19156\Desktop\DualModeKeyboard\LIB\libCH57xBLE.a(host_output.o) (API_DisconnectCmd)
C:\Users\19156\Desktop\DualModeKeyboard\LIB\libCH57xBLE.a(ctl_input.o)
                              C:\Users\19156\Desktop\DualModeKeyboard\LIB\libCH57xBLE.a(api_c.o) (LL_ReceiverTest)
C:\Users\19156\Desktop\DualModeKeyboard\LIB\libCH57xBLE.a(ctl_output.o)
                              C:\Users\19156\Desktop\DualModeKeyboard\LIB\libCH57xBLE.a(api_c.o) (HCI_SetEventMask)
C:\Users\19156\Desktop\DualModeKeyboard\LIB\libCH57xBLE.a(gapbondmgr.o)
                              ./Profile/hiddev.o (GAPBondMgr_GetParameter)
C:\Users\19156\Desktop\DualModeKeyboard\LIB\libCH57xBLE.a(peripheral.o)
                              ./APP/app_ble.o (GAPRole_PeripheralConnParamUpdateReq)
C:\Users\19156\Desktop\DualModeKeyboard\LIB\libCH57xBLE.a(role.o)
                              C:\Users\19156\Desktop\DualModeKeyboard\LIB\libCH57xBLE.a(gap.o) (GAPRole_ParamInit)
C:\Users\19156\Desktop\DualModeKeyboard\LIB\libCH57xBLE.a(memory.o)
                              C:\Users\19156\Desktop\DualModeKeyboard\LIB\libCH57xBLE.a(tmos.o) (tmos_memory_init)
C:\Users\19156\Desktop\DualModeKeyboard\LIB\libCH57xBLE.a(att.o)
                              C:\Users\19156\Desktop\DualModeKeyboard\LIB\libCH57xBLE.a(gatt.o) (ATT_ParamInit)
C:\Users\19156\Desktop\DualModeKeyboard\LIB\libCH57xBLE.a(att_client.o)
                              C:\Users\19156\Desktop\DualModeKeyboard\LIB\libCH57xBLE.a(gatt.o) (ATT_ParseExchangeMTURsp)
C:\Users\19156\Desktop\DualModeKeyboard\LIB\libCH57xBLE.a(att_server.o)
                              C:\Users\19156\Desktop\DualModeKeyboard\LIB\libCH57xBLE.a(gattservapp.o) (ATT_ParseExchangeMTUReq)
C:\Users\19156\Desktop\DualModeKeyboard\LIB\libCH57xBLE.a(ll.o)
                              C:\Users\19156\Desktop\DualModeKeyboard\LIB\libCH57xBLE.a(ctl_input.o) (ll_get_prime_number)
C:\Users\19156\Desktop\DualModeKeyboard\LIB\libCH57xBLE.a(ll_advertise.o)
                              C:\Users\19156\Desktop\DualModeKeyboard\LIB\libCH57xBLE.a(ctl_input.o) (LL_AdvertiseToStandby)
C:\Users\19156\Desktop\DualModeKeyboard\LIB\libCH57xBLE.a(ll_initiate.o)
                              C:\Users\19156\Desktop\DualModeKeyboard\LIB\libCH57xBLE.a(ctl_input.o) (LL_InitiateToStandby)
C:\Users\19156\Desktop\DualModeKeyboard\LIB\libCH57xBLE.a(ll_resolvinglist.o)
                              C:\Users\19156\Desktop\DualModeKeyboard\LIB\libCH57xBLE.a(ll_advertise.o) (ll_resolvinglist_checkRPA)
C:\Users\19156\Desktop\DualModeKeyboard\LIB\libCH57xBLE.a(broadcaster.o)
                              C:\Users\19156\Desktop\DualModeKeyboard\LIB\libCH57xBLE.a(role.o) (GAPRole_BroadcasterEnable)
C:\Users\19156\Desktop\DualModeKeyboard\LIB\libCH57xBLE.a(central.o)
                              C:\Users\19156\Desktop\DualModeKeyboard\LIB\libCH57xBLE.a(role.o) (GAPRole_CentralEnable)
C:\Users\19156\Desktop\DualModeKeyboard\LIB\libCH57xBLE.a(observer.o)
                              C:\Users\19156\Desktop\DualModeKeyboard\LIB\libCH57xBLE.a(role.o) (GAPRole_ObserverEnable)
C:\Users\19156\Desktop\DualModeKeyboard\LIB\libCH57xBLE.a(ll_address.o)
                              C:\Users\19156\Desktop\DualModeKeyboard\LIB\libCH57xBLE.a(ll_resolvinglist.o) (LL_AddrGenerateResolvableAddress)
c:/mounriver/mounriver_studio/toolchain/risc-v embedded gcc/bin/../lib/gcc/riscv-none-embed/8.2.0/rv32imac/ilp32\libgcc.a(_lshrdi3.o)
                              C:\Users\19156\Desktop\DualModeKeyboard\LIB\libCH57xBLE.a(ll_hop.o) (__lshrdi3)
c:/mounriver/mounriver_studio/toolchain/risc-v embedded gcc/bin/../lib/gcc/riscv-none-embed/8.2.0/rv32imac/ilp32\libgcc.a(_ashrdi3.o)
                              C:\Users\19156\Desktop\DualModeKeyboard\LIB\libCH57xBLE.a(ctl_input.o) (__ashrdi3)
c:/mounriver/mounriver_studio/toolchain/risc-v embedded gcc/bin/../lib/gcc/riscv-none-embed/8.2.0/rv32imac/ilp32\libgcc.a(_divdi3.o)
                              C:\Users\19156\Desktop\DualModeKeyboard\LIB\libCH57xBLE.a(ll_connect.o) (__divdi3)
c:/mounriver/mounriver_studio/toolchain/risc-v embedded gcc/bin/../lib/gcc/riscv-none-embed/8.2.0/rv32imac/ilp32\libgcc.a(_udivdi3.o)
                              C:\Users\19156\Desktop\DualModeKeyboard\LIB\libCH57xBLE.a(ll_connect.o) (__udivdi3)
c:/mounriver/mounriver_studio/toolchain/risc-v embedded gcc/bin/../lib/gcc/riscv-none-embed/8.2.0/rv32imac/ilp32\libgcc.a(muldf3.o)
                              ./StdPeriphDriver/CH57x_clk.o (__muldf3)
c:/mounriver/mounriver_studio/toolchain/risc-v embedded gcc/bin/../lib/gcc/riscv-none-embed/8.2.0/rv32imac/ilp32\libgcc.a(floatsidf.o)
                              ./StdPeriphDriver/CH57x_clk.o (__floatsidf)
c:/mounriver/mounriver_studio/toolchain/risc-v embedded gcc/bin/../lib/gcc/riscv-none-embed/8.2.0/rv32imac/ilp32\libgcc.a(mulsf3.o)
                              ./StdPeriphDriver/CH57x_clk.o (__mulsf3)
c:/mounriver/mounriver_studio/toolchain/risc-v embedded gcc/bin/../lib/gcc/riscv-none-embed/8.2.0/rv32imac/ilp32\libgcc.a(fixsfsi.o)
                              ./StdPeriphDriver/CH57x_clk.o (__fixsfsi)
c:/mounriver/mounriver_studio/toolchain/risc-v embedded gcc/bin/../lib/gcc/riscv-none-embed/8.2.0/rv32imac/ilp32\libgcc.a(floatsisf.o)
                              ./StdPeriphDriver/CH57x_clk.o (__floatsisf)
c:/mounriver/mounriver_studio/toolchain/risc-v embedded gcc/bin/../lib/gcc/riscv-none-embed/8.2.0/rv32imac/ilp32\libgcc.a(truncdfsf2.o)
                              ./StdPeriphDriver/CH57x_clk.o (__truncdfsf2)
c:/mounriver/mounriver_studio/toolchain/risc-v embedded gcc/bin/../lib/gcc/riscv-none-embed/8.2.0/rv32imac/ilp32\libgcc.a(_clz.o)
                              c:/mounriver/mounriver_studio/toolchain/risc-v embedded gcc/bin/../lib/gcc/riscv-none-embed/8.2.0/rv32imac/ilp32\libgcc.a(_divdi3.o) (__clz_tab)
c:/mounriver/mounriver_studio/toolchain/risc-v embedded gcc/bin/../lib/gcc/riscv-none-embed/8.2.0/rv32imac/ilp32\libgcc.a(_clzsi2.o)
                              c:/mounriver/mounriver_studio/toolchain/risc-v embedded gcc/bin/../lib/gcc/riscv-none-embed/8.2.0/rv32imac/ilp32\libgcc.a(muldf3.o) (__clzsi2)
c:/mounriver/mounriver_studio/toolchain/risc-v embedded gcc/bin/../lib/gcc/riscv-none-embed/8.2.0/../../../../riscv-none-embed/lib/rv32imac/ilp32\libg_nano.a(lib_a-memcpy.o)
                              ./APP/app_usb.o (memcpy)

Discarded input sections

 .text          0x0000000000000000        0x0 ./StdPeriphDriver/CH57x_adc.o
 .data          0x0000000000000000        0x0 ./StdPeriphDriver/CH57x_adc.o
 .bss           0x0000000000000000        0x0 ./StdPeriphDriver/CH57x_adc.o
 .text.ADC_DataCalib_Rough
                0x0000000000000000       0x84 ./StdPeriphDriver/CH57x_adc.o
 .text.ADC_ExtSingleChSampInit
                0x0000000000000000       0x24 ./StdPeriphDriver/CH57x_adc.o
 .text.ADC_ExtDiffChSampInit
                0x0000000000000000       0x24 ./StdPeriphDriver/CH57x_adc.o
 .text.ADC_InterBATSampInit
                0x0000000000000000       0x1e ./StdPeriphDriver/CH57x_adc.o
 .text.TouchKey_ChSampInit
                0x0000000000000000       0x1a ./StdPeriphDriver/CH57x_adc.o
 .text.ADC_ExcutSingleConver
                0x0000000000000000       0x20 ./StdPeriphDriver/CH57x_adc.o
 .text.TouchKey_ExcutSingleConver
                0x0000000000000000       0x2e ./StdPeriphDriver/CH57x_adc.o
 .text.ADC_AutoConverCycle
                0x0000000000000000        0xa ./StdPeriphDriver/CH57x_adc.o
 .text.ADC_DMACfg
                0x0000000000000000       0x42 ./StdPeriphDriver/CH57x_adc.o
 .text.adc_to_temperature_celsius
                0x0000000000000000       0x24 ./StdPeriphDriver/CH57x_adc.o
 .debug_info    0x0000000000000000      0xed2 ./StdPeriphDriver/CH57x_adc.o
 .debug_abbrev  0x0000000000000000      0x2cf ./StdPeriphDriver/CH57x_adc.o
 .debug_loc     0x0000000000000000      0x1f2 ./StdPeriphDriver/CH57x_adc.o
 .debug_aranges
                0x0000000000000000       0x70 ./StdPeriphDriver/CH57x_adc.o
 .debug_ranges  0x0000000000000000       0x60 ./StdPeriphDriver/CH57x_adc.o
 .debug_line    0x0000000000000000      0x8ae ./StdPeriphDriver/CH57x_adc.o
 .debug_str     0x0000000000000000      0xa08 ./StdPeriphDriver/CH57x_adc.o
 .debug_frame   0x0000000000000000       0xc0 ./StdPeriphDriver/CH57x_adc.o
 .text          0x0000000000000000        0x0 ./StdPeriphDriver/CH57x_clk.o
 .data          0x0000000000000000        0x0 ./StdPeriphDriver/CH57x_clk.o
 .bss           0x0000000000000000        0x0 ./StdPeriphDriver/CH57x_clk.o
 .text.LClk32K_Select
                0x0000000000000000       0x34 ./StdPeriphDriver/CH57x_clk.o
 .text.HSECFG_Current
                0x0000000000000000       0x2a ./StdPeriphDriver/CH57x_clk.o
 .text.HSECFG_Capacitance
                0x0000000000000000       0x2e ./StdPeriphDriver/CH57x_clk.o
 .text.LSECFG_Current
                0x0000000000000000       0x2a ./StdPeriphDriver/CH57x_clk.o
 .text.LSECFG_Capacitance
                0x0000000000000000       0x2c ./StdPeriphDriver/CH57x_clk.o
 .text.LSI_SetTune_FLASH
                0x0000000000000000       0x26 ./StdPeriphDriver/CH57x_clk.o
 .text.LSI_SetTune_RAM
                0x0000000000000000       0x26 ./StdPeriphDriver/CH57x_clk.o
 .text.RTC_GetTime
                0x0000000000000000      0x15c ./StdPeriphDriver/CH57x_clk.o
 .text.RTC_SetCycle32k
                0x0000000000000000       0x5a ./StdPeriphDriver/CH57x_clk.o
 .text.RTC_GetCycle32k
                0x0000000000000000       0x18 ./StdPeriphDriver/CH57x_clk.o
 .text.RTC_TMRFunCfg
                0x0000000000000000       0x40 ./StdPeriphDriver/CH57x_clk.o
 .text.RTC_TRIGFunCfg
                0x0000000000000000       0x48 ./StdPeriphDriver/CH57x_clk.o
 .text.RTC_ModeFunDisable
                0x0000000000000000       0x38 ./StdPeriphDriver/CH57x_clk.o
 .text.RTC_GetITFlag
                0x0000000000000000       0x1a ./StdPeriphDriver/CH57x_clk.o
 .text.RTC_ClearITFlag
                0x0000000000000000       0x20 ./StdPeriphDriver/CH57x_clk.o
 .debug_info    0x0000000000000000     0x1676 ./StdPeriphDriver/CH57x_clk.o
 .debug_abbrev  0x0000000000000000      0x3dd ./StdPeriphDriver/CH57x_clk.o
 .debug_loc     0x0000000000000000      0xb65 ./StdPeriphDriver/CH57x_clk.o
 .debug_aranges
                0x0000000000000000       0xb0 ./StdPeriphDriver/CH57x_clk.o
 .debug_ranges  0x0000000000000000      0x198 ./StdPeriphDriver/CH57x_clk.o
 .debug_line    0x0000000000000000     0x1d5a ./StdPeriphDriver/CH57x_clk.o
 .debug_str     0x0000000000000000      0xc08 ./StdPeriphDriver/CH57x_clk.o
 .debug_frame   0x0000000000000000      0x204 ./StdPeriphDriver/CH57x_clk.o
 .text          0x0000000000000000        0x0 ./StdPeriphDriver/CH57x_flash.o
 .data          0x0000000000000000        0x0 ./StdPeriphDriver/CH57x_flash.o
 .bss           0x0000000000000000        0x0 ./StdPeriphDriver/CH57x_flash.o
 .text.FLASH_ROM_READ
                0x0000000000000000       0x1c ./StdPeriphDriver/CH57x_flash.o
 .debug_info    0x0000000000000000      0xc2a ./StdPeriphDriver/CH57x_flash.o
 .debug_abbrev  0x0000000000000000      0x21a ./StdPeriphDriver/CH57x_flash.o
 .debug_loc     0x0000000000000000       0xff ./StdPeriphDriver/CH57x_flash.o
 .debug_aranges
                0x0000000000000000       0x20 ./StdPeriphDriver/CH57x_flash.o
 .debug_ranges  0x0000000000000000       0x10 ./StdPeriphDriver/CH57x_flash.o
 .debug_line    0x0000000000000000      0x2a6 ./StdPeriphDriver/CH57x_flash.o
 .debug_str     0x0000000000000000      0x7b0 ./StdPeriphDriver/CH57x_flash.o
 .comment       0x0000000000000000       0x34 ./StdPeriphDriver/CH57x_flash.o
 .debug_frame   0x0000000000000000       0x20 ./StdPeriphDriver/CH57x_flash.o
 .text          0x0000000000000000        0x0 ./StdPeriphDriver/CH57x_gpio.o
 .data          0x0000000000000000        0x0 ./StdPeriphDriver/CH57x_gpio.o
 .bss           0x0000000000000000        0x0 ./StdPeriphDriver/CH57x_gpio.o
 .text.GPIOA_ITModeCfg
                0x0000000000000000       0x82 ./StdPeriphDriver/CH57x_gpio.o
 .text.GPIOB_ITModeCfg
                0x0000000000000000       0x8a ./StdPeriphDriver/CH57x_gpio.o
 .text.GPIOPinRemap
                0x0000000000000000       0x1a ./StdPeriphDriver/CH57x_gpio.o
 .text.GPIOAGPPCfg
                0x0000000000000000       0x1a ./StdPeriphDriver/CH57x_gpio.o
 .debug_info    0x0000000000000000      0xdae ./StdPeriphDriver/CH57x_gpio.o
 .debug_abbrev  0x0000000000000000      0x268 ./StdPeriphDriver/CH57x_gpio.o
 .debug_loc     0x0000000000000000      0x361 ./StdPeriphDriver/CH57x_gpio.o
 .debug_aranges
                0x0000000000000000       0x48 ./StdPeriphDriver/CH57x_gpio.o
 .debug_ranges  0x0000000000000000       0x38 ./StdPeriphDriver/CH57x_gpio.o
 .debug_line    0x0000000000000000      0x75b ./StdPeriphDriver/CH57x_gpio.o
 .debug_str     0x0000000000000000      0x8df ./StdPeriphDriver/CH57x_gpio.o
 .debug_frame   0x0000000000000000       0x70 ./StdPeriphDriver/CH57x_gpio.o
 .text          0x0000000000000000        0x0 ./StdPeriphDriver/CH57x_pwr.o
 .data          0x0000000000000000        0x0 ./StdPeriphDriver/CH57x_pwr.o
 .bss           0x0000000000000000        0x0 ./StdPeriphDriver/CH57x_pwr.o
 .text.PWR_DCDCCfg
                0x0000000000000000       0x7c ./StdPeriphDriver/CH57x_pwr.o
 .text.PWR_UnitModCfg
                0x0000000000000000       0x5c ./StdPeriphDriver/CH57x_pwr.o
 .text.PWR_PeriphClkCfg
                0x0000000000000000       0x2e ./StdPeriphDriver/CH57x_pwr.o
 .text.PWR_PeriphWakeUpCfg
                0x0000000000000000       0x78 ./StdPeriphDriver/CH57x_pwr.o
 .text.PowerMonitor
                0x0000000000000000       0x94 ./StdPeriphDriver/CH57x_pwr.o
 .highcode      0x0000000000000000      0x2dc ./StdPeriphDriver/CH57x_pwr.o
 .sdata2.CSWTCH.10
                0x0000000000000000        0x4 ./StdPeriphDriver/CH57x_pwr.o
 .debug_info    0x0000000000000000     0x152e ./StdPeriphDriver/CH57x_pwr.o
 .debug_abbrev  0x0000000000000000      0x369 ./StdPeriphDriver/CH57x_pwr.o
 .debug_loc     0x0000000000000000      0x2f7 ./StdPeriphDriver/CH57x_pwr.o
 .debug_aranges
                0x0000000000000000       0x60 ./StdPeriphDriver/CH57x_pwr.o
 .debug_ranges  0x0000000000000000       0xa8 ./StdPeriphDriver/CH57x_pwr.o
 .debug_line    0x0000000000000000     0x116d ./StdPeriphDriver/CH57x_pwr.o
 .debug_str     0x0000000000000000      0xbc0 ./StdPeriphDriver/CH57x_pwr.o
 .comment       0x0000000000000000       0x34 ./StdPeriphDriver/CH57x_pwr.o
 .debug_frame   0x0000000000000000      0x110 ./StdPeriphDriver/CH57x_pwr.o
 .text          0x0000000000000000        0x0 ./StdPeriphDriver/CH57x_sys.o
 .data          0x0000000000000000        0x0 ./StdPeriphDriver/CH57x_sys.o
 .bss           0x0000000000000000        0x0 ./StdPeriphDriver/CH57x_sys.o
 .text.GetSysClock
                0x0000000000000000       0x42 ./StdPeriphDriver/CH57x_sys.o
 .text.SYS_GetInfoSta
                0x0000000000000000       0x24 ./StdPeriphDriver/CH57x_sys.o
 .text.SYS_DisableAllIrq
                0x0000000000000000       0x1c ./StdPeriphDriver/CH57x_sys.o
 .text.SYS_RecoverIrq
                0x0000000000000000       0x14 ./StdPeriphDriver/CH57x_sys.o
 .text.WWDG_ITCfg
                0x0000000000000000       0x34 ./StdPeriphDriver/CH57x_sys.o
 .text.WWDG_ResetCfg
                0x0000000000000000       0x34 ./StdPeriphDriver/CH57x_sys.o
 .text.WWDG_ClearFlag
                0x0000000000000000       0x26 ./StdPeriphDriver/CH57x_sys.o
 .debug_info    0x0000000000000000     0x12fc ./StdPeriphDriver/CH57x_sys.o
 .debug_abbrev  0x0000000000000000      0x352 ./StdPeriphDriver/CH57x_sys.o
 .debug_loc     0x0000000000000000      0x206 ./StdPeriphDriver/CH57x_sys.o
 .debug_aranges
                0x0000000000000000       0x80 ./StdPeriphDriver/CH57x_sys.o
 .debug_ranges  0x0000000000000000       0x88 ./StdPeriphDriver/CH57x_sys.o
 .debug_line    0x0000000000000000      0xc34 ./StdPeriphDriver/CH57x_sys.o
 .debug_str     0x0000000000000000      0xb44 ./StdPeriphDriver/CH57x_sys.o
 .debug_frame   0x0000000000000000      0x104 ./StdPeriphDriver/CH57x_sys.o
 .text          0x0000000000000000        0x0 ./StdPeriphDriver/CH57x_uart1.o
 .data          0x0000000000000000        0x0 ./StdPeriphDriver/CH57x_uart1.o
 .bss           0x0000000000000000        0x0 ./StdPeriphDriver/CH57x_uart1.o
 .text.UART1_BaudRateCfg
                0x0000000000000000       0x36 ./StdPeriphDriver/CH57x_uart1.o
 .text.UART1_DefInit
                0x0000000000000000       0x38 ./StdPeriphDriver/CH57x_uart1.o
 .text.UART1_ByteTrigCfg
                0x0000000000000000       0x1a ./StdPeriphDriver/CH57x_uart1.o
 .text.UART1_INTCfg
                0x0000000000000000       0x2a ./StdPeriphDriver/CH57x_uart1.o
 .text.UART1_Reset
                0x0000000000000000        0xe ./StdPeriphDriver/CH57x_uart1.o
 .text.UART1_SendString
                0x0000000000000000       0x28 ./StdPeriphDriver/CH57x_uart1.o
 .text.UART1_RecvString
                0x0000000000000000       0x2a ./StdPeriphDriver/CH57x_uart1.o
 .debug_info    0x0000000000000000      0xd86 ./StdPeriphDriver/CH57x_uart1.o
 .debug_abbrev  0x0000000000000000      0x2aa ./StdPeriphDriver/CH57x_uart1.o
 .debug_loc     0x0000000000000000      0x1ed ./StdPeriphDriver/CH57x_uart1.o
 .debug_aranges
                0x0000000000000000       0x50 ./StdPeriphDriver/CH57x_uart1.o
 .debug_ranges  0x0000000000000000       0x40 ./StdPeriphDriver/CH57x_uart1.o
 .debug_line    0x0000000000000000      0x59e ./StdPeriphDriver/CH57x_uart1.o
 .debug_str     0x0000000000000000      0x884 ./StdPeriphDriver/CH57x_uart1.o
 .comment       0x0000000000000000       0x34 ./StdPeriphDriver/CH57x_uart1.o
 .debug_frame   0x0000000000000000       0x9c ./StdPeriphDriver/CH57x_uart1.o
 .text          0x0000000000000000        0x0 ./StdPeriphDriver/CH57x_usbdev.o
 .data          0x0000000000000000        0x0 ./StdPeriphDriver/CH57x_usbdev.o
 .bss           0x0000000000000000        0x0 ./StdPeriphDriver/CH57x_usbdev.o
 .text.DevEP4_IN_Deal
                0x0000000000000000       0x16 ./StdPeriphDriver/CH57x_usbdev.o
 .debug_info    0x0000000000000000      0xca7 ./StdPeriphDriver/CH57x_usbdev.o
 .debug_abbrev  0x0000000000000000      0x217 ./StdPeriphDriver/CH57x_usbdev.o
 .debug_aranges
                0x0000000000000000       0x40 ./StdPeriphDriver/CH57x_usbdev.o
 .debug_ranges  0x0000000000000000       0x30 ./StdPeriphDriver/CH57x_usbdev.o
 .debug_line    0x0000000000000000      0x4e7 ./StdPeriphDriver/CH57x_usbdev.o
 .debug_str     0x0000000000000000      0x7db ./StdPeriphDriver/CH57x_usbdev.o
 .debug_frame   0x0000000000000000       0x60 ./StdPeriphDriver/CH57x_usbdev.o
 .text          0x0000000000000000        0x0 ./Startup/startup_CH573.o
 .data          0x0000000000000000        0x0 ./Startup/startup_CH573.o
 .bss           0x0000000000000000        0x0 ./Startup/startup_CH573.o
 .debug_line    0x0000000000000000      0x257 ./Startup/startup_CH573.o
 .debug_info    0x0000000000000000       0x22 ./Startup/startup_CH573.o
 .debug_abbrev  0x0000000000000000       0x12 ./Startup/startup_CH573.o
 .debug_aranges
                0x0000000000000000       0x38 ./Startup/startup_CH573.o
 .debug_str     0x0000000000000000       0x6f ./Startup/startup_CH573.o
 .debug_ranges  0x0000000000000000       0x30 ./Startup/startup_CH573.o
 .text          0x0000000000000000        0x0 ./RVMSIS/core_riscv.o
 .data          0x0000000000000000        0x0 ./RVMSIS/core_riscv.o
 .bss           0x0000000000000000        0x0 ./RVMSIS/core_riscv.o
 .text.__get_MSTATUS
                0x0000000000000000        0x6 ./RVMSIS/core_riscv.o
 .text.__set_MSTATUS
                0x0000000000000000        0x6 ./RVMSIS/core_riscv.o
 .text.__get_MISA
                0x0000000000000000        0x6 ./RVMSIS/core_riscv.o
 .text.__set_MISA
                0x0000000000000000        0x6 ./RVMSIS/core_riscv.o
 .text.__get_MTVEC
                0x0000000000000000        0x6 ./RVMSIS/core_riscv.o
 .text.__set_MTVEC
                0x0000000000000000        0x6 ./RVMSIS/core_riscv.o
 .text.__get_MSCRATCH
                0x0000000000000000        0x6 ./RVMSIS/core_riscv.o
 .text.__set_MSCRATCH
                0x0000000000000000        0x6 ./RVMSIS/core_riscv.o
 .text.__get_MEPC
                0x0000000000000000        0x6 ./RVMSIS/core_riscv.o
 .text.__set_MEPC
                0x0000000000000000        0x6 ./RVMSIS/core_riscv.o
 .text.__get_MCAUSE
                0x0000000000000000        0x6 ./RVMSIS/core_riscv.o
 .text.__set_MCAUSE
                0x0000000000000000        0x6 ./RVMSIS/core_riscv.o
 .text.__get_MTVAL
                0x0000000000000000        0x6 ./RVMSIS/core_riscv.o
 .text.__set_MTVAL
                0x0000000000000000        0x6 ./RVMSIS/core_riscv.o
 .text.__get_MVENDORID
                0x0000000000000000        0x6 ./RVMSIS/core_riscv.o
 .text.__get_MARCHID
                0x0000000000000000        0x6 ./RVMSIS/core_riscv.o
 .text.__get_MIMPID
                0x0000000000000000        0x6 ./RVMSIS/core_riscv.o
 .text.__get_MHARTID
                0x0000000000000000        0x6 ./RVMSIS/core_riscv.o
 .text.__get_SP
                0x0000000000000000        0x4 ./RVMSIS/core_riscv.o
 .debug_info    0x0000000000000000      0x373 ./RVMSIS/core_riscv.o
 .debug_abbrev  0x0000000000000000       0xe0 ./RVMSIS/core_riscv.o
 .debug_aranges
                0x0000000000000000       0xb0 ./RVMSIS/core_riscv.o
 .debug_ranges  0x0000000000000000       0xa0 ./RVMSIS/core_riscv.o
 .debug_line    0x0000000000000000      0x460 ./RVMSIS/core_riscv.o
 .debug_str     0x0000000000000000      0x2bb ./RVMSIS/core_riscv.o
 .comment       0x0000000000000000       0x34 ./RVMSIS/core_riscv.o
 .debug_frame   0x0000000000000000      0x140 ./RVMSIS/core_riscv.o
 .text          0x0000000000000000        0x0 ./Profile/battservice.o
 .data          0x0000000000000000        0x0 ./Profile/battservice.o
 .bss           0x0000000000000000        0x0 ./Profile/battservice.o
 .text.Batt_Setup
                0x0000000000000000       0x2a ./Profile/battservice.o
 .debug_info    0x0000000000000000     0x2341 ./Profile/battservice.o
 .debug_abbrev  0x0000000000000000      0x4b8 ./Profile/battservice.o
 .debug_loc     0x0000000000000000      0x6d8 ./Profile/battservice.o
 .debug_aranges
                0x0000000000000000       0x70 ./Profile/battservice.o
 .debug_ranges  0x0000000000000000       0x78 ./Profile/battservice.o
 .debug_line    0x0000000000000000      0xb27 ./Profile/battservice.o
 .debug_str     0x0000000000000000     0x132c ./Profile/battservice.o
 .debug_frame   0x0000000000000000      0x164 ./Profile/battservice.o
 .text          0x0000000000000000        0x0 ./Profile/devinfoservice.o
 .data          0x0000000000000000        0x0 ./Profile/devinfoservice.o
 .bss           0x0000000000000000        0x0 ./Profile/devinfoservice.o
 .text.DevInfo_SetParameter
                0x0000000000000000       0x28 ./Profile/devinfoservice.o
 .text.DevInfo_GetParameter
                0x0000000000000000       0x9e ./Profile/devinfoservice.o
 .rodata.DevInfo_GetParameter
                0x0000000000000000       0x24 ./Profile/devinfoservice.o
 .debug_info    0x0000000000000000     0x133c ./Profile/devinfoservice.o
 .debug_abbrev  0x0000000000000000      0x2d7 ./Profile/devinfoservice.o
 .debug_loc     0x0000000000000000      0x35c ./Profile/devinfoservice.o
 .debug_aranges
                0x0000000000000000       0x38 ./Profile/devinfoservice.o
 .debug_ranges  0x0000000000000000       0x28 ./Profile/devinfoservice.o
 .debug_line    0x0000000000000000      0x703 ./Profile/devinfoservice.o
 .debug_str     0x0000000000000000      0xcdc ./Profile/devinfoservice.o
 .debug_frame   0x0000000000000000       0x80 ./Profile/devinfoservice.o
 .text          0x0000000000000000        0x0 ./Profile/hiddev.o
 .data          0x0000000000000000        0x0 ./Profile/hiddev.o
 .bss           0x0000000000000000        0x0 ./Profile/hiddev.o
 .text.HidDev_SetParameter
                0x0000000000000000       0x48 ./Profile/hiddev.o
 .text.HidDev_GetParameter
                0x0000000000000000        0x4 ./Profile/hiddev.o
 .text.HidDev_PasscodeRsp
                0x0000000000000000       0x14 ./Profile/hiddev.o
 .debug_info    0x0000000000000000     0x317e ./Profile/hiddev.o
 .debug_abbrev  0x0000000000000000      0x578 ./Profile/hiddev.o
 .debug_loc     0x0000000000000000      0xf29 ./Profile/hiddev.o
 .debug_aranges
                0x0000000000000000       0xb0 ./Profile/hiddev.o
 .debug_ranges  0x0000000000000000      0x198 ./Profile/hiddev.o
 .debug_line    0x0000000000000000     0x13de ./Profile/hiddev.o
 .debug_str     0x0000000000000000     0x18a5 ./Profile/hiddev.o
 .debug_frame   0x0000000000000000      0x220 ./Profile/hiddev.o
 .text          0x0000000000000000        0x0 ./Profile/hidkbdservice.o
 .data          0x0000000000000000        0x0 ./Profile/hidkbdservice.o
 .bss           0x0000000000000000        0x0 ./Profile/hidkbdservice.o
 .debug_info    0x0000000000000000     0x1576 ./Profile/hidkbdservice.o
 .debug_abbrev  0x0000000000000000      0x304 ./Profile/hidkbdservice.o
 .debug_loc     0x0000000000000000       0xdf ./Profile/hidkbdservice.o
 .debug_aranges
                0x0000000000000000       0x30 ./Profile/hidkbdservice.o
 .debug_ranges  0x0000000000000000       0x20 ./Profile/hidkbdservice.o
 .debug_line    0x0000000000000000      0x7c5 ./Profile/hidkbdservice.o
 .debug_str     0x0000000000000000     0x106a ./Profile/hidkbdservice.o
 .debug_frame   0x0000000000000000       0x5c ./Profile/hidkbdservice.o
 .text          0x0000000000000000        0x0 ./Profile/scanparamservice.o
 .data          0x0000000000000000        0x0 ./Profile/scanparamservice.o
 .bss           0x0000000000000000        0x0 ./Profile/scanparamservice.o
 .text.ScanParam_SetParameter
                0x0000000000000000        0x4 ./Profile/scanparamservice.o
 .text.ScanParam_GetParameter
                0x0000000000000000       0x3c ./Profile/scanparamservice.o
 .debug_info    0x0000000000000000     0x1e2f ./Profile/scanparamservice.o
 .debug_abbrev  0x0000000000000000      0x436 ./Profile/scanparamservice.o
 .debug_loc     0x0000000000000000      0x410 ./Profile/scanparamservice.o
 .debug_aranges
                0x0000000000000000       0x58 ./Profile/scanparamservice.o
 .debug_ranges  0x0000000000000000       0x70 ./Profile/scanparamservice.o
 .debug_line    0x0000000000000000      0x73c ./Profile/scanparamservice.o
 .debug_str     0x0000000000000000     0x122d ./Profile/scanparamservice.o
 .debug_frame   0x0000000000000000       0xd4 ./Profile/scanparamservice.o
 .text          0x0000000000000000        0x0 ./HAL/MCU.o
 .data          0x0000000000000000        0x0 ./HAL/MCU.o
 .bss           0x0000000000000000        0x0 ./HAL/MCU.o
 .debug_info    0x0000000000000000     0x17bb ./HAL/MCU.o
 .debug_abbrev  0x0000000000000000      0x41e ./HAL/MCU.o
 .debug_loc     0x0000000000000000      0x261 ./HAL/MCU.o
 .debug_aranges
                0x0000000000000000       0x50 ./HAL/MCU.o
 .debug_ranges  0x0000000000000000       0x80 ./HAL/MCU.o
 .debug_line    0x0000000000000000      0xa81 ./HAL/MCU.o
 .debug_str     0x0000000000000000      0xe3f ./HAL/MCU.o
 .debug_frame   0x0000000000000000      0x10c ./HAL/MCU.o
 .text          0x0000000000000000        0x0 ./HAL/RTC.o
 .data          0x0000000000000000        0x0 ./HAL/RTC.o
 .bss           0x0000000000000000        0x0 ./HAL/RTC.o
 .text.RTC_SetTignTime
                0x0000000000000000       0x24 ./HAL/RTC.o
 .debug_info    0x0000000000000000      0xe8b ./HAL/RTC.o
 .debug_abbrev  0x0000000000000000      0x2ab ./HAL/RTC.o
 .debug_aranges
                0x0000000000000000       0x30 ./HAL/RTC.o
 .debug_ranges  0x0000000000000000       0x50 ./HAL/RTC.o
 .debug_line    0x0000000000000000      0x495 ./HAL/RTC.o
 .debug_str     0x0000000000000000      0x9bd ./HAL/RTC.o
 .debug_frame   0x0000000000000000       0x50 ./HAL/RTC.o
 .text          0x0000000000000000        0x0 ./HAL/SLEEP.o
 .data          0x0000000000000000        0x0 ./HAL/SLEEP.o
 .bss           0x0000000000000000        0x0 ./HAL/SLEEP.o
 .text.CH57X_LowPower
                0x0000000000000000        0x4 ./HAL/SLEEP.o
 .text.HAL_SleepInit
                0x0000000000000000        0x2 ./HAL/SLEEP.o
 .debug_info    0x0000000000000000      0xd6d ./HAL/SLEEP.o
 .debug_abbrev  0x0000000000000000      0x211 ./HAL/SLEEP.o
 .debug_loc     0x0000000000000000       0x21 ./HAL/SLEEP.o
 .debug_aranges
                0x0000000000000000       0x28 ./HAL/SLEEP.o
 .debug_ranges  0x0000000000000000       0x18 ./HAL/SLEEP.o
 .debug_line    0x0000000000000000      0x2f8 ./HAL/SLEEP.o
 .debug_str     0x0000000000000000      0x940 ./HAL/SLEEP.o
 .comment       0x0000000000000000       0x34 ./HAL/SLEEP.o
 .debug_frame   0x0000000000000000       0x30 ./HAL/SLEEP.o
 .text          0x0000000000000000        0x0 ./APP/MAIN.o
 .data          0x0000000000000000        0x0 ./APP/MAIN.o
 .bss           0x0000000000000000        0x0 ./APP/MAIN.o
 .debug_info    0x0000000000000000     0x11f7 ./APP/MAIN.o
 .debug_abbrev  0x0000000000000000      0x28c ./APP/MAIN.o
 .debug_aranges
                0x0000000000000000       0x28 ./APP/MAIN.o
 .debug_ranges  0x0000000000000000       0x18 ./APP/MAIN.o
 .debug_line    0x0000000000000000      0x44f ./APP/MAIN.o
 .debug_str     0x0000000000000000      0xe44 ./APP/MAIN.o
 .debug_frame   0x0000000000000000       0x40 ./APP/MAIN.o
 .text          0x0000000000000000        0x0 ./APP/app_ble.o
 .data          0x0000000000000000        0x0 ./APP/app_ble.o
 .bss           0x0000000000000000        0x0 ./APP/app_ble.o
 .debug_info    0x0000000000000000     0x1bb0 ./APP/app_ble.o
 .debug_abbrev  0x0000000000000000      0x41c ./APP/app_ble.o
 .debug_loc     0x0000000000000000      0x3f6 ./APP/app_ble.o
 .debug_aranges
                0x0000000000000000       0x48 ./APP/app_ble.o
 .debug_ranges  0x0000000000000000       0x68 ./APP/app_ble.o
 .debug_line    0x0000000000000000      0x7e6 ./APP/app_ble.o
 .debug_str     0x0000000000000000      0xf9c ./APP/app_ble.o
 .debug_frame   0x0000000000000000       0xbc ./APP/app_ble.o
 .text          0x0000000000000000        0x0 ./APP/app_usb.o
 .data          0x0000000000000000        0x0 ./APP/app_usb.o
 .bss           0x0000000000000000        0x0 ./APP/app_usb.o
 .text.USB_CB_LightChange
                0x0000000000000000        0x2 ./APP/app_usb.o
 .text.DevEP3_OUT_Deal
                0x0000000000000000        0x2 ./APP/app_usb.o
 .debug_info    0x0000000000000000     0x173d ./APP/app_usb.o
 .debug_abbrev  0x0000000000000000      0x3d5 ./APP/app_usb.o
 .debug_loc     0x0000000000000000      0x2f2 ./APP/app_usb.o
 .debug_aranges
                0x0000000000000000       0x50 ./APP/app_usb.o
 .debug_ranges  0x0000000000000000       0x80 ./APP/app_usb.o
 .debug_line    0x0000000000000000     0x1410 ./APP/app_usb.o
 .debug_str     0x0000000000000000      0xf09 ./APP/app_usb.o
 .debug_frame   0x0000000000000000       0xec ./APP/app_usb.o
 .text          0x0000000000000000        0x0 ./APP/keyin.o
 .data          0x0000000000000000        0x0 ./APP/keyin.o
 .bss           0x0000000000000000        0x0 ./APP/keyin.o
 .debug_info    0x0000000000000000     0x1740 ./APP/keyin.o
 .debug_abbrev  0x0000000000000000      0x31c ./APP/keyin.o
 .debug_loc     0x0000000000000000      0x1cf ./APP/keyin.o
 .debug_aranges
                0x0000000000000000       0x40 ./APP/keyin.o
 .debug_ranges  0x0000000000000000       0x30 ./APP/keyin.o
 .debug_line    0x0000000000000000     0x1f35 ./APP/keyin.o
 .debug_str     0x0000000000000000      0xffc ./APP/keyin.o
 .debug_frame   0x0000000000000000       0xa4 ./APP/keyin.o
 .text          0x0000000000000000        0x0 ./APP/led.o
 .data          0x0000000000000000        0x0 ./APP/led.o
 .bss           0x0000000000000000        0x0 ./APP/led.o
 .debug_line    0x0000000000000000        0x0 ./APP/led.o
 .debug_str     0x0000000000000000      0x103 ./APP/led.o
 .comment       0x0000000000000000       0x34 ./APP/led.o
 .text          0x0000000000000000        0x0 ./APP/protocol.o
 .data          0x0000000000000000        0x0 ./APP/protocol.o
 .bss           0x0000000000000000        0x0 ./APP/protocol.o
 .debug_info    0x0000000000000000     0x1266 ./APP/protocol.o
 .debug_abbrev  0x0000000000000000      0x319 ./APP/protocol.o
 .debug_loc     0x0000000000000000       0xe2 ./APP/protocol.o
 .debug_aranges
                0x0000000000000000       0x30 ./APP/protocol.o
 .debug_ranges  0x0000000000000000       0x58 ./APP/protocol.o
 .debug_line    0x0000000000000000      0x609 ./APP/protocol.o
 .debug_str     0x0000000000000000      0xd51 ./APP/protocol.o
 .debug_frame   0x0000000000000000       0x78 ./APP/protocol.o
 .text          0x0000000000000000        0x0 ./APP/usercfg.o
 .data          0x0000000000000000        0x0 ./APP/usercfg.o
 .bss           0x0000000000000000        0x0 ./APP/usercfg.o
 .debug_info    0x0000000000000000     0x10d5 ./APP/usercfg.o
 .debug_abbrev  0x0000000000000000      0x29c ./APP/usercfg.o
 .debug_loc     0x0000000000000000       0xb8 ./APP/usercfg.o
 .debug_aranges
                0x0000000000000000       0x30 ./APP/usercfg.o
 .debug_ranges  0x0000000000000000       0x20 ./APP/usercfg.o
 .debug_line    0x0000000000000000      0x452 ./APP/usercfg.o
 .debug_str     0x0000000000000000      0xb48 ./APP/usercfg.o
 .debug_frame   0x0000000000000000       0x64 ./APP/usercfg.o
 .text          0x0000000000000000        0x0 C:\Users\19156\Desktop\SRC\StdPeriphDriver\libISP573.a(ISP573.o)
 .data          0x0000000000000000        0x0 C:\Users\19156\Desktop\SRC\StdPeriphDriver\libISP573.a(ISP573.o)
 .bss           0x0000000000000000        0x0 C:\Users\19156\Desktop\SRC\StdPeriphDriver\libISP573.a(ISP573.o)
 .text          0x0000000000000000        0x0 C:\Users\19156\Desktop\DualModeKeyboard\LIB\libCH57xBLE.a(message.o)
 .data          0x0000000000000000        0x0 C:\Users\19156\Desktop\DualModeKeyboard\LIB\libCH57xBLE.a(message.o)
 .bss           0x0000000000000000        0x0 C:\Users\19156\Desktop\DualModeKeyboard\LIB\libCH57xBLE.a(message.o)
 .text.tmos_msg_push
                0x0000000000000000        0xa C:\Users\19156\Desktop\DualModeKeyboard\LIB\libCH57xBLE.a(message.o)
 .text.tmos_msg_push_front
                0x0000000000000000       0x70 C:\Users\19156\Desktop\DualModeKeyboard\LIB\libCH57xBLE.a(message.o)
 .text          0x0000000000000000        0x0 C:\Users\19156\Desktop\DualModeKeyboard\LIB\libCH57xBLE.a(tmos.o)
 .data          0x0000000000000000        0x0 C:\Users\19156\Desktop\DualModeKeyboard\LIB\libCH57xBLE.a(tmos.o)
 .bss           0x0000000000000000        0x0 C:\Users\19156\Desktop\DualModeKeyboard\LIB\libCH57xBLE.a(tmos.o)
 .text.TMOS_GetSystemClock
                0x0000000000000000        0xc C:\Users\19156\Desktop\DualModeKeyboard\LIB\libCH57xBLE.a(tmos.o)
 .text.tmos_get_event
                0x0000000000000000       0x14 C:\Users\19156\Desktop\DualModeKeyboard\LIB\libCH57xBLE.a(tmos.o)
 .text.TMOS_ProcessGet
                0x0000000000000000       0x1a C:\Users\19156\Desktop\DualModeKeyboard\LIB\libCH57xBLE.a(tmos.o)
 .text.TMOS_SystemProcessRegister
                0x0000000000000000        0xa C:\Users\19156\Desktop\DualModeKeyboard\LIB\libCH57xBLE.a(tmos.o)
 .text          0x0000000000000000        0x0 C:\Users\19156\Desktop\DualModeKeyboard\LIB\libCH57xBLE.a(tmos_hw.o)
 .data          0x0000000000000000        0x0 C:\Users\19156\Desktop\DualModeKeyboard\LIB\libCH57xBLE.a(tmos_hw.o)
 .bss           0x0000000000000000        0x0 C:\Users\19156\Desktop\DualModeKeyboard\LIB\libCH57xBLE.a(tmos_hw.o)
 .text          0x0000000000000000        0x0 C:\Users\19156\Desktop\DualModeKeyboard\LIB\libCH57xBLE.a(tmos_snv.o)
 .data          0x0000000000000000        0x0 C:\Users\19156\Desktop\DualModeKeyboard\LIB\libCH57xBLE.a(tmos_snv.o)
 .bss           0x0000000000000000        0x0 C:\Users\19156\Desktop\DualModeKeyboard\LIB\libCH57xBLE.a(tmos_snv.o)
 .text          0x0000000000000000        0x0 C:\Users\19156\Desktop\DualModeKeyboard\LIB\libCH57xBLE.a(gap.o)
 .data          0x0000000000000000        0x0 C:\Users\19156\Desktop\DualModeKeyboard\LIB\libCH57xBLE.a(gap.o)
 .bss           0x0000000000000000        0x0 C:\Users\19156\Desktop\DualModeKeyboard\LIB\libCH57xBLE.a(gap.o)
 .text.GAP_UpdateLinkParamReq
                0x0000000000000000       0xc8 C:\Users\19156\Desktop\DualModeKeyboard\LIB\libCH57xBLE.a(gap.o)
 .text.GAP_PasskeyUpdate
                0x0000000000000000       0x42 C:\Users\19156\Desktop\DualModeKeyboard\LIB\libCH57xBLE.a(gap.o)
 .text          0x0000000000000000        0x0 C:\Users\19156\Desktop\DualModeKeyboard\LIB\libCH57xBLE.a(gap_central.o)
 .data          0x0000000000000000        0x0 C:\Users\19156\Desktop\DualModeKeyboard\LIB\libCH57xBLE.a(gap_central.o)
 .bss           0x0000000000000000        0x0 C:\Users\19156\Desktop\DualModeKeyboard\LIB\libCH57xBLE.a(gap_central.o)
 .text.GAP_DeviceDiscoveryCancel
                0x0000000000000000       0x4c C:\Users\19156\Desktop\DualModeKeyboard\LIB\libCH57xBLE.a(gap_central.o)
 .text.GAP_DeviceDiscoveryRequest
                0x0000000000000000       0xb0 C:\Users\19156\Desktop\DualModeKeyboard\LIB\libCH57xBLE.a(gap_central.o)
 .text.GAP_EstablishLinkReq
                0x0000000000000000      0x178 C:\Users\19156\Desktop\DualModeKeyboard\LIB\libCH57xBLE.a(gap_central.o)
 .text          0x0000000000000000        0x0 C:\Users\19156\Desktop\DualModeKeyboard\LIB\libCH57xBLE.a(gap_peripheral.o)
 .data          0x0000000000000000        0x0 C:\Users\19156\Desktop\DualModeKeyboard\LIB\libCH57xBLE.a(gap_peripheral.o)
 .bss           0x0000000000000000        0x0 C:\Users\19156\Desktop\DualModeKeyboard\LIB\libCH57xBLE.a(gap_peripheral.o)
 .text.GAP_RemoveAdvToken
                0x0000000000000000       0x58 C:\Users\19156\Desktop\DualModeKeyboard\LIB\libCH57xBLE.a(gap_peripheral.o)
 .text.GAP_UpdateAdvTokens
                0x0000000000000000      0x186 C:\Users\19156\Desktop\DualModeKeyboard\LIB\libCH57xBLE.a(gap_peripheral.o)
 .text.GAP_SetAdvToken
                0x0000000000000000       0xf0 C:\Users\19156\Desktop\DualModeKeyboard\LIB\libCH57xBLE.a(gap_peripheral.o)
 .text          0x0000000000000000        0x0 C:\Users\19156\Desktop\DualModeKeyboard\LIB\libCH57xBLE.a(gapgattserver.o)
 .data          0x0000000000000000        0x0 C:\Users\19156\Desktop\DualModeKeyboard\LIB\libCH57xBLE.a(gapgattserver.o)
 .bss           0x0000000000000000        0x0 C:\Users\19156\Desktop\DualModeKeyboard\LIB\libCH57xBLE.a(gapgattserver.o)
 .text.GGS_GetParameter
                0x0000000000000000       0x6c C:\Users\19156\Desktop\DualModeKeyboard\LIB\libCH57xBLE.a(gapgattserver.o)
 .text.GGS_SetParamValue
                0x0000000000000000        0x2 C:\Users\19156\Desktop\DualModeKeyboard\LIB\libCH57xBLE.a(gapgattserver.o)
 .text.GGS_GetParamValue
                0x0000000000000000        0x4 C:\Users\19156\Desktop\DualModeKeyboard\LIB\libCH57xBLE.a(gapgattserver.o)
 .text.GGS_DelService
                0x0000000000000000       0x1a C:\Users\19156\Desktop\DualModeKeyboard\LIB\libCH57xBLE.a(gapgattserver.o)
 .text.GGS_RegisterAppCBs
                0x0000000000000000        0xa C:\Users\19156\Desktop\DualModeKeyboard\LIB\libCH57xBLE.a(gapgattserver.o)
 .text          0x0000000000000000        0x0 C:\Users\19156\Desktop\DualModeKeyboard\LIB\libCH57xBLE.a(gatt.o)
 .data          0x0000000000000000        0x0 C:\Users\19156\Desktop\DualModeKeyboard\LIB\libCH57xBLE.a(gatt.o)
 .bss           0x0000000000000000        0x0 C:\Users\19156\Desktop\DualModeKeyboard\LIB\libCH57xBLE.a(gatt.o)
 .text.gattRead
                0x0000000000000000       0x58 C:\Users\19156\Desktop\DualModeKeyboard\LIB\libCH57xBLE.a(gatt.o)
 .text.gattWrite.part.0
                0x0000000000000000       0x58 C:\Users\19156\Desktop\DualModeKeyboard\LIB\libCH57xBLE.a(gatt.o)
 .text.gattReadByType
                0x0000000000000000       0x98 C:\Users\19156\Desktop\DualModeKeyboard\LIB\libCH57xBLE.a(gatt.o)
 .text.gattReadLong
                0x0000000000000000       0x58 C:\Users\19156\Desktop\DualModeKeyboard\LIB\libCH57xBLE.a(gatt.o)
 .text.gattWrite
                0x0000000000000000       0x12 C:\Users\19156\Desktop\DualModeKeyboard\LIB\libCH57xBLE.a(gatt.o)
 .text.GATT_DiscAllCharDescs
                0x0000000000000000       0x5a C:\Users\19156\Desktop\DualModeKeyboard\LIB\libCH57xBLE.a(gatt.o)
 .text.GATT_DiscAllChars
                0x0000000000000000       0x2e C:\Users\19156\Desktop\DualModeKeyboard\LIB\libCH57xBLE.a(gatt.o)
 .text.GATT_DiscAllPrimaryServices
                0x0000000000000000       0x66 C:\Users\19156\Desktop\DualModeKeyboard\LIB\libCH57xBLE.a(gatt.o)
 .text.GATT_DiscCharsByUUID
                0x0000000000000000        0xc C:\Users\19156\Desktop\DualModeKeyboard\LIB\libCH57xBLE.a(gatt.o)
 .text.GATT_ExchangeMTU
                0x0000000000000000       0x58 C:\Users\19156\Desktop\DualModeKeyboard\LIB\libCH57xBLE.a(gatt.o)
 .text.GATT_FindIncludedServices
                0x0000000000000000       0x2e C:\Users\19156\Desktop\DualModeKeyboard\LIB\libCH57xBLE.a(gatt.o)
 .text.GATT_ReadCharDesc
                0x0000000000000000        0x8 C:\Users\19156\Desktop\DualModeKeyboard\LIB\libCH57xBLE.a(gatt.o)
 .text.GATT_ReadCharValue
                0x0000000000000000        0x8 C:\Users\19156\Desktop\DualModeKeyboard\LIB\libCH57xBLE.a(gatt.o)
 .text.GATT_ReadLongCharDesc
                0x0000000000000000        0x8 C:\Users\19156\Desktop\DualModeKeyboard\LIB\libCH57xBLE.a(gatt.o)
 .text.GATT_ReadLongCharValue
                0x0000000000000000        0x8 C:\Users\19156\Desktop\DualModeKeyboard\LIB\libCH57xBLE.a(gatt.o)
 .text.GATT_ReadMultiCharValues
                0x0000000000000000       0x58 C:\Users\19156\Desktop\DualModeKeyboard\LIB\libCH57xBLE.a(gatt.o)
 .text.GATT_ReadUsingCharUUID
                0x0000000000000000        0xc C:\Users\19156\Desktop\DualModeKeyboard\LIB\libCH57xBLE.a(gatt.o)
 .text.GATT_SetHostToAppFlowCtrl
                0x0000000000000000        0xe C:\Users\19156\Desktop\DualModeKeyboard\LIB\libCH57xBLE.a(gatt.o)
 .text.GATT_SignedWriteNoRsp
                0x0000000000000000       0x3a C:\Users\19156\Desktop\DualModeKeyboard\LIB\libCH57xBLE.a(gatt.o)
 .text.GATT_WriteCharValue
                0x0000000000000000       0x16 C:\Users\19156\Desktop\DualModeKeyboard\LIB\libCH57xBLE.a(gatt.o)
 .text.GATT_WriteCharDesc
                0x0000000000000000        0x8 C:\Users\19156\Desktop\DualModeKeyboard\LIB\libCH57xBLE.a(gatt.o)
 .text.GATT_WriteNoRsp
                0x0000000000000000       0x4c C:\Users\19156\Desktop\DualModeKeyboard\LIB\libCH57xBLE.a(gatt.o)
 .text.gattRegisterClient
                0x0000000000000000        0xa C:\Users\19156\Desktop\DualModeKeyboard\LIB\libCH57xBLE.a(gatt.o)
 .text.GATT_SendRsp
                0x0000000000000000      0x138 C:\Users\19156\Desktop\DualModeKeyboard\LIB\libCH57xBLE.a(gatt.o)
 .rodata.GATT_SendRsp
                0x0000000000000000       0x64 C:\Users\19156\Desktop\DualModeKeyboard\LIB\libCH57xBLE.a(gatt.o)
 .text.gattFindByTypeValue
                0x0000000000000000       0x84 C:\Users\19156\Desktop\DualModeKeyboard\LIB\libCH57xBLE.a(gatt.o)
 .text.GATT_DiscPrimaryServiceByUUID
                0x0000000000000000       0x86 C:\Users\19156\Desktop\DualModeKeyboard\LIB\libCH57xBLE.a(gatt.o)
 .text.gattPrepareWriteReq
                0x0000000000000000       0x76 C:\Users\19156\Desktop\DualModeKeyboard\LIB\libCH57xBLE.a(gatt.o)
 .text.gattProcessReliableWrites
                0x0000000000000000       0xe4 C:\Users\19156\Desktop\DualModeKeyboard\LIB\libCH57xBLE.a(gatt.o)
 .text.gattProcessWriteLong
                0x0000000000000000       0xd4 C:\Users\19156\Desktop\DualModeKeyboard\LIB\libCH57xBLE.a(gatt.o)
 .text.gattWriteLong
                0x0000000000000000       0x94 C:\Users\19156\Desktop\DualModeKeyboard\LIB\libCH57xBLE.a(gatt.o)
 .text.GATT_WriteLongCharValue
                0x0000000000000000        0x8 C:\Users\19156\Desktop\DualModeKeyboard\LIB\libCH57xBLE.a(gatt.o)
 .text.GATT_WriteLongCharDesc
                0x0000000000000000        0x8 C:\Users\19156\Desktop\DualModeKeyboard\LIB\libCH57xBLE.a(gatt.o)
 .text.GATT_ReliableWrites
                0x0000000000000000       0xee C:\Users\19156\Desktop\DualModeKeyboard\LIB\libCH57xBLE.a(gatt.o)
 .text.GATT_RegisterForCentMsgs
                0x0000000000000000        0xa C:\Users\19156\Desktop\DualModeKeyboard\LIB\libCH57xBLE.a(gatt.o)
 .text          0x0000000000000000        0x0 C:\Users\19156\Desktop\DualModeKeyboard\LIB\libCH57xBLE.a(gatt_uuid.o)
 .data          0x0000000000000000        0x0 C:\Users\19156\Desktop\DualModeKeyboard\LIB\libCH57xBLE.a(gatt_uuid.o)
 .bss           0x0000000000000000        0x0 C:\Users\19156\Desktop\DualModeKeyboard\LIB\libCH57xBLE.a(gatt_uuid.o)
 .text.GATT_FindUUIDRec
                0x0000000000000000      0x17a C:\Users\19156\Desktop\DualModeKeyboard\LIB\libCH57xBLE.a(gatt_uuid.o)
 .sdata2.charAggFormatUUID
                0x0000000000000000        0x2 C:\Users\19156\Desktop\DualModeKeyboard\LIB\libCH57xBLE.a(gatt_uuid.o)
 .sdata2.charExtPropsUUID
                0x0000000000000000        0x2 C:\Users\19156\Desktop\DualModeKeyboard\LIB\libCH57xBLE.a(gatt_uuid.o)
 .sdata2.charFormatUUID
                0x0000000000000000        0x2 C:\Users\19156\Desktop\DualModeKeyboard\LIB\libCH57xBLE.a(gatt_uuid.o)
 .sdata2.charUserDescUUID
                0x0000000000000000        0x2 C:\Users\19156\Desktop\DualModeKeyboard\LIB\libCH57xBLE.a(gatt_uuid.o)
 .sdata2.periPrivacyFlagUUID
                0x0000000000000000        0x2 C:\Users\19156\Desktop\DualModeKeyboard\LIB\libCH57xBLE.a(gatt_uuid.o)
 .sdata2.reconnectAddrUUID
                0x0000000000000000        0x2 C:\Users\19156\Desktop\DualModeKeyboard\LIB\libCH57xBLE.a(gatt_uuid.o)
 .sdata2.servCharCfgUUID
                0x0000000000000000        0x2 C:\Users\19156\Desktop\DualModeKeyboard\LIB\libCH57xBLE.a(gatt_uuid.o)
 .sdata2.validRangeUUID
                0x0000000000000000        0x2 C:\Users\19156\Desktop\DualModeKeyboard\LIB\libCH57xBLE.a(gatt_uuid.o)
 .text          0x0000000000000000        0x0 C:\Users\19156\Desktop\DualModeKeyboard\LIB\libCH57xBLE.a(gattclientapp.o)
 .data          0x0000000000000000        0x0 C:\Users\19156\Desktop\DualModeKeyboard\LIB\libCH57xBLE.a(gattclientapp.o)
 .bss           0x0000000000000000        0x0 C:\Users\19156\Desktop\DualModeKeyboard\LIB\libCH57xBLE.a(gattclientapp.o)
 .text.gattProcessReadByType
                0x0000000000000000      0x1f4 C:\Users\19156\Desktop\DualModeKeyboard\LIB\libCH57xBLE.a(gattclientapp.o)
 .text.gattFindClientInfo
                0x0000000000000000       0x34 C:\Users\19156\Desktop\DualModeKeyboard\LIB\libCH57xBLE.a(gattclientapp.o)
 .text.gattClientNotifyTxCB
                0x0000000000000000       0x2c C:\Users\19156\Desktop\DualModeKeyboard\LIB\libCH57xBLE.a(gattclientapp.o)
 .text.gattGetClientStatus
                0x0000000000000000       0x3a C:\Users\19156\Desktop\DualModeKeyboard\LIB\libCH57xBLE.a(gattclientapp.o)
 .text.gattResetClientInfo
                0x0000000000000000       0x8e C:\Users\19156\Desktop\DualModeKeyboard\LIB\libCH57xBLE.a(gattclientapp.o)
 .text.gattClientHandleConnStatusCB
                0x0000000000000000       0xb6 C:\Users\19156\Desktop\DualModeKeyboard\LIB\libCH57xBLE.a(gattclientapp.o)
 .text.gattClientHandleTimerCB
                0x0000000000000000       0x64 C:\Users\19156\Desktop\DualModeKeyboard\LIB\libCH57xBLE.a(gattclientapp.o)
 .text.gattStoreClientInfo
                0x0000000000000000       0x76 C:\Users\19156\Desktop\DualModeKeyboard\LIB\libCH57xBLE.a(gattclientapp.o)
 .text.GATT_RegisterForInd
                0x0000000000000000        0xa C:\Users\19156\Desktop\DualModeKeyboard\LIB\libCH57xBLE.a(gattclientapp.o)
 .text.gattProcessFindInfo
                0x0000000000000000       0x9a C:\Users\19156\Desktop\DualModeKeyboard\LIB\libCH57xBLE.a(gattclientapp.o)
 .text.gattProcessFindByTypeValue
                0x0000000000000000       0x86 C:\Users\19156\Desktop\DualModeKeyboard\LIB\libCH57xBLE.a(gattclientapp.o)
 .text.gattProcessReadLong
                0x0000000000000000       0x84 C:\Users\19156\Desktop\DualModeKeyboard\LIB\libCH57xBLE.a(gattclientapp.o)
 .text.gattProcessReadByGrpType
                0x0000000000000000       0x9a C:\Users\19156\Desktop\DualModeKeyboard\LIB\libCH57xBLE.a(gattclientapp.o)
 .text.gattProcessMultiReqs
                0x0000000000000000      0x168 C:\Users\19156\Desktop\DualModeKeyboard\LIB\libCH57xBLE.a(gattclientapp.o)
 .text.gattClientProcessMsgCB
                0x0000000000000000      0x228 C:\Users\19156\Desktop\DualModeKeyboard\LIB\libCH57xBLE.a(gattclientapp.o)
 .text.GATT_InitClient
                0x0000000000000000       0xe0 C:\Users\19156\Desktop\DualModeKeyboard\LIB\libCH57xBLE.a(gattclientapp.o)
 .sbss.clientInfoTbl
                0x0000000000000000        0x4 C:\Users\19156\Desktop\DualModeKeyboard\LIB\libCH57xBLE.a(gattclientapp.o)
 .sbss.indTaskId
                0x0000000000000000        0x1 C:\Users\19156\Desktop\DualModeKeyboard\LIB\libCH57xBLE.a(gattclientapp.o)
 .comment       0x0000000000000000       0x34 C:\Users\19156\Desktop\DualModeKeyboard\LIB\libCH57xBLE.a(gattclientapp.o)
 .text          0x0000000000000000        0x0 C:\Users\19156\Desktop\DualModeKeyboard\LIB\libCH57xBLE.a(gattservapp.o)
 .data          0x0000000000000000        0x0 C:\Users\19156\Desktop\DualModeKeyboard\LIB\libCH57xBLE.a(gattservapp.o)
 .bss           0x0000000000000000        0x0 C:\Users\19156\Desktop\DualModeKeyboard\LIB\libCH57xBLE.a(gattservapp.o)
 .text.GATTServApp_FindAttr
                0x0000000000000000       0x1c C:\Users\19156\Desktop\DualModeKeyboard\LIB\libCH57xBLE.a(gattservapp.o)
 .text.GATTServApp_GetParameter
                0x0000000000000000        0xe C:\Users\19156\Desktop\DualModeKeyboard\LIB\libCH57xBLE.a(gattservapp.o)
 .text.gattServApp_SetNumPrepareWrites
                0x0000000000000000       0x3c C:\Users\19156\Desktop\DualModeKeyboard\LIB\libCH57xBLE.a(gattservapp.o)
 .text.GATTServApp_SetParameter
                0x0000000000000000       0x60 C:\Users\19156\Desktop\DualModeKeyboard\LIB\libCH57xBLE.a(gattservapp.o)
 .text.GATT_DeregisterService
                0x0000000000000000       0x5e C:\Users\19156\Desktop\DualModeKeyboard\LIB\libCH57xBLE.a(gattservapp.o)
 .text.GATTServApp_DeregisterService
                0x0000000000000000       0x64 C:\Users\19156\Desktop\DualModeKeyboard\LIB\libCH57xBLE.a(gattservapp.o)
 .text.gattServApp_SendNotiInd
                0x0000000000000000       0xa4 C:\Users\19156\Desktop\DualModeKeyboard\LIB\libCH57xBLE.a(gattservapp.o)
 .text.GATTServApp_ProcessCharCfg
                0x0000000000000000       0xdc C:\Users\19156\Desktop\DualModeKeyboard\LIB\libCH57xBLE.a(gattservapp.o)
 .text.GATT_GetNextHandle
                0x0000000000000000        0xa C:\Users\19156\Desktop\DualModeKeyboard\LIB\libCH57xBLE.a(gattservapp.o)
 .text.GATT_RegisterForReq
                0x0000000000000000        0xa C:\Users\19156\Desktop\DualModeKeyboard\LIB\libCH57xBLE.a(gattservapp.o)
 .text          0x0000000000000000        0x0 C:\Users\19156\Desktop\DualModeKeyboard\LIB\libCH57xBLE.a(l2cap.o)
 .data          0x0000000000000000        0x0 C:\Users\19156\Desktop\DualModeKeyboard\LIB\libCH57xBLE.a(l2cap.o)
 .bss           0x0000000000000000        0x0 C:\Users\19156\Desktop\DualModeKeyboard\LIB\libCH57xBLE.a(l2cap.o)
 .text.l2capAllocPsm
                0x0000000000000000       0x46 C:\Users\19156\Desktop\DualModeKeyboard\LIB\libCH57xBLE.a(l2cap.o)
 .text.L2CAP_ChannelInfo
                0x0000000000000000       0x3e C:\Users\19156\Desktop\DualModeKeyboard\LIB\libCH57xBLE.a(l2cap.o)
 .text.L2CAP_DeregisterPsm
                0x0000000000000000       0x42 C:\Users\19156\Desktop\DualModeKeyboard\LIB\libCH57xBLE.a(l2cap.o)
 .text.L2CAP_ParseInfoReq
                0x0000000000000000       0x1e C:\Users\19156\Desktop\DualModeKeyboard\LIB\libCH57xBLE.a(l2cap.o)
 .text.L2CAP_PsmChannels
                0x0000000000000000       0x98 C:\Users\19156\Desktop\DualModeKeyboard\LIB\libCH57xBLE.a(l2cap.o)
 .text.L2CAP_PsmInfo
                0x0000000000000000       0x64 C:\Users\19156\Desktop\DualModeKeyboard\LIB\libCH57xBLE.a(l2cap.o)
 .text.L2CAP_RegisterPsm
                0x0000000000000000       0x78 C:\Users\19156\Desktop\DualModeKeyboard\LIB\libCH57xBLE.a(l2cap.o)
 .text.L2CAP_SetControllerToHostFlowCtrl
                0x0000000000000000       0x54 C:\Users\19156\Desktop\DualModeKeyboard\LIB\libCH57xBLE.a(l2cap.o)
 .text.L2CAP_SetUserConfig
                0x0000000000000000       0x1a C:\Users\19156\Desktop\DualModeKeyboard\LIB\libCH57xBLE.a(l2cap.o)
 .text          0x0000000000000000        0x0 C:\Users\19156\Desktop\DualModeKeyboard\LIB\libCH57xBLE.a(l2cap_input.o)
 .data          0x0000000000000000        0x0 C:\Users\19156\Desktop\DualModeKeyboard\LIB\libCH57xBLE.a(l2cap_input.o)
 .bss           0x0000000000000000        0x0 C:\Users\19156\Desktop\DualModeKeyboard\LIB\libCH57xBLE.a(l2cap_input.o)
 .text          0x0000000000000000        0x0 C:\Users\19156\Desktop\DualModeKeyboard\LIB\libCH57xBLE.a(l2cap_output.o)
 .data          0x0000000000000000        0x0 C:\Users\19156\Desktop\DualModeKeyboard\LIB\libCH57xBLE.a(l2cap_output.o)
 .bss           0x0000000000000000        0x0 C:\Users\19156\Desktop\DualModeKeyboard\LIB\libCH57xBLE.a(l2cap_output.o)
 .text.l2capSendFCPkt
                0x0000000000000000       0x12 C:\Users\19156\Desktop\DualModeKeyboard\LIB\libCH57xBLE.a(l2cap_output.o)
 .text.L2CAP_SendSDU
                0x0000000000000000       0x94 C:\Users\19156\Desktop\DualModeKeyboard\LIB\libCH57xBLE.a(l2cap_output.o)
 .text          0x0000000000000000        0x0 C:\Users\19156\Desktop\DualModeKeyboard\LIB\libCH57xBLE.a(l2cap_sdu.o)
 .data          0x0000000000000000        0x0 C:\Users\19156\Desktop\DualModeKeyboard\LIB\libCH57xBLE.a(l2cap_sdu.o)
 .bss           0x0000000000000000        0x0 C:\Users\19156\Desktop\DualModeKeyboard\LIB\libCH57xBLE.a(l2cap_sdu.o)
 .text.L2CAP_BuildConnectReq
                0x0000000000000000       0x5e C:\Users\19156\Desktop\DualModeKeyboard\LIB\libCH57xBLE.a(l2cap_sdu.o)
 .text.L2CAP_ConnectReq
                0x0000000000000000       0x7e C:\Users\19156\Desktop\DualModeKeyboard\LIB\libCH57xBLE.a(l2cap_sdu.o)
 .text.L2CAP_ConnectRsp
                0x0000000000000000      0x106 C:\Users\19156\Desktop\DualModeKeyboard\LIB\libCH57xBLE.a(l2cap_sdu.o)
 .text          0x0000000000000000        0x0 C:\Users\19156\Desktop\DualModeKeyboard\LIB\libCH57xBLE.a(linkdb.o)
 .data          0x0000000000000000        0x0 C:\Users\19156\Desktop\DualModeKeyboard\LIB\libCH57xBLE.a(linkdb.o)
 .bss           0x0000000000000000        0x0 C:\Users\19156\Desktop\DualModeKeyboard\LIB\libCH57xBLE.a(linkdb.o)
 .text.linkDB_Update
                0x0000000000000000       0x36 C:\Users\19156\Desktop\DualModeKeyboard\LIB\libCH57xBLE.a(linkdb.o)
 .text          0x0000000000000000        0x0 C:\Users\19156\Desktop\DualModeKeyboard\LIB\libCH57xBLE.a(sm.o)
 .data          0x0000000000000000        0x0 C:\Users\19156\Desktop\DualModeKeyboard\LIB\libCH57xBLE.a(sm.o)
 .bss           0x0000000000000000        0x0 C:\Users\19156\Desktop\DualModeKeyboard\LIB\libCH57xBLE.a(sm.o)
 .text.smAuthReqToUint8
                0x0000000000000000        0x6 C:\Users\19156\Desktop\DualModeKeyboard\LIB\libCH57xBLE.a(sm.o)
 .text.smRegisterInitiator
                0x0000000000000000        0xa C:\Users\19156\Desktop\DualModeKeyboard\LIB\libCH57xBLE.a(sm.o)
 .text.smRegisterResponder
                0x0000000000000000        0xa C:\Users\19156\Desktop\DualModeKeyboard\LIB\libCH57xBLE.a(sm.o)
 .text.smpParseSecurityReq
                0x0000000000000000       0x14 C:\Users\19156\Desktop\DualModeKeyboard\LIB\libCH57xBLE.a(sm.o)
 .text.SM_NewRandKey
                0x0000000000000000       0x54 C:\Users\19156\Desktop\DualModeKeyboard\LIB\libCH57xBLE.a(sm.o)
 .text          0x0000000000000000        0x0 C:\Users\19156\Desktop\DualModeKeyboard\LIB\libCH57xBLE.a(host_input.o)
 .data          0x0000000000000000        0x0 C:\Users\19156\Desktop\DualModeKeyboard\LIB\libCH57xBLE.a(host_input.o)
 .bss           0x0000000000000000        0x0 C:\Users\19156\Desktop\DualModeKeyboard\LIB\libCH57xBLE.a(host_input.o)
 .text.HOST_LE_AdvPktReportEvent
                0x0000000000000000       0xa0 C:\Users\19156\Desktop\DualModeKeyboard\LIB\libCH57xBLE.a(host_input.o)
 .text.HOST_LE_ReadLocalPublicKeyCompleteEvent
                0x0000000000000000       0x64 C:\Users\19156\Desktop\DualModeKeyboard\LIB\libCH57xBLE.a(host_input.o)
 .text.HOST_LE_GenerateDHKeyCompleteEvent
                0x0000000000000000       0x64 C:\Users\19156\Desktop\DualModeKeyboard\LIB\libCH57xBLE.a(host_input.o)
 .text.HOST_LE_DirectAdvertisingReportEvent
                0x0000000000000000       0xc2 C:\Users\19156\Desktop\DualModeKeyboard\LIB\libCH57xBLE.a(host_input.o)
 .text.HOST_HardwareErrorEvent
                0x0000000000000000       0x46 C:\Users\19156\Desktop\DualModeKeyboard\LIB\libCH57xBLE.a(host_input.o)
 .text          0x0000000000000000        0x0 C:\Users\19156\Desktop\DualModeKeyboard\LIB\libCH57xBLE.a(host_output.o)
 .data          0x0000000000000000        0x0 C:\Users\19156\Desktop\DualModeKeyboard\LIB\libCH57xBLE.a(host_output.o)
 .bss           0x0000000000000000        0x0 C:\Users\19156\Desktop\DualModeKeyboard\LIB\libCH57xBLE.a(host_output.o)
 .text.HCI_ReadRemoteVersionInfoCmd
                0x0000000000000000        0x8 C:\Users\19156\Desktop\DualModeKeyboard\LIB\libCH57xBLE.a(host_output.o)
 .text.HCI_SetEventMaskCmd
                0x0000000000000000        0x4 C:\Users\19156\Desktop\DualModeKeyboard\LIB\libCH57xBLE.a(host_output.o)
 .text.HCI_ResetCmd
                0x0000000000000000        0x8 C:\Users\19156\Desktop\DualModeKeyboard\LIB\libCH57xBLE.a(host_output.o)
 .text.HCI_SetDataLengthCmd
                0x0000000000000000        0x8 C:\Users\19156\Desktop\DualModeKeyboard\LIB\libCH57xBLE.a(host_output.o)
 .text.HCI_ReadTransmitPowerLevelCmd
                0x0000000000000000        0x8 C:\Users\19156\Desktop\DualModeKeyboard\LIB\libCH57xBLE.a(host_output.o)
 .text.HCI_SetControllerToHostFlowCtrlCmd
                0x0000000000000000        0x8 C:\Users\19156\Desktop\DualModeKeyboard\LIB\libCH57xBLE.a(host_output.o)
 .text.HCI_HostBufferSizeCmd
                0x0000000000000000        0x4 C:\Users\19156\Desktop\DualModeKeyboard\LIB\libCH57xBLE.a(host_output.o)
 .text.HCI_SetEventMaskPage2Cmd
                0x0000000000000000        0x4 C:\Users\19156\Desktop\DualModeKeyboard\LIB\libCH57xBLE.a(host_output.o)
 .text.HCI_ReadLocalSupportedCommandsCmd
                0x0000000000000000        0x8 C:\Users\19156\Desktop\DualModeKeyboard\LIB\libCH57xBLE.a(host_output.o)
 .text.HCI_ReadLocalSupportedFeaturesCmd
                0x0000000000000000        0x8 C:\Users\19156\Desktop\DualModeKeyboard\LIB\libCH57xBLE.a(host_output.o)
 .text.HCI_ReadRssiCmd
                0x0000000000000000        0x8 C:\Users\19156\Desktop\DualModeKeyboard\LIB\libCH57xBLE.a(host_output.o)
 .text.HCI_LE_SetEventMaskCmd
                0x0000000000000000        0x4 C:\Users\19156\Desktop\DualModeKeyboard\LIB\libCH57xBLE.a(host_output.o)
 .text.HCI_LE_ReadLocalSupportedFeaturesCmd
                0x0000000000000000        0x8 C:\Users\19156\Desktop\DualModeKeyboard\LIB\libCH57xBLE.a(host_output.o)
 .text.HCI_LE_SetScanParamCmd
                0x0000000000000000        0x8 C:\Users\19156\Desktop\DualModeKeyboard\LIB\libCH57xBLE.a(host_output.o)
 .text.HCI_LE_CreateConnCmd
                0x0000000000000000       0x20 C:\Users\19156\Desktop\DualModeKeyboard\LIB\libCH57xBLE.a(host_output.o)
 .text.HCI_LE_ReadWhiteListSizeCmd
                0x0000000000000000        0x8 C:\Users\19156\Desktop\DualModeKeyboard\LIB\libCH57xBLE.a(host_output.o)
 .text.HCI_LE_RemoveWhiteListCmd
                0x0000000000000000        0x8 C:\Users\19156\Desktop\DualModeKeyboard\LIB\libCH57xBLE.a(host_output.o)
 .text.HCI_LE_SetHostChanClassificationCmd
                0x0000000000000000        0x8 C:\Users\19156\Desktop\DualModeKeyboard\LIB\libCH57xBLE.a(host_output.o)
 .text.HCI_LE_ReadChannelMapCmd
                0x0000000000000000        0x8 C:\Users\19156\Desktop\DualModeKeyboard\LIB\libCH57xBLE.a(host_output.o)
 .text.HCI_LE_ReadRemoteUsedFeaturesCmd
                0x0000000000000000        0x8 C:\Users\19156\Desktop\DualModeKeyboard\LIB\libCH57xBLE.a(host_output.o)
 .text          0x0000000000000000        0x0 C:\Users\19156\Desktop\DualModeKeyboard\LIB\libCH57xBLE.a(ll_connect.o)
 .data          0x0000000000000000        0x0 C:\Users\19156\Desktop\DualModeKeyboard\LIB\libCH57xBLE.a(ll_connect.o)
 .bss           0x0000000000000000        0x0 C:\Users\19156\Desktop\DualModeKeyboard\LIB\libCH57xBLE.a(ll_connect.o)
 .text.LL_ConnectEventRegister
                0x0000000000000000        0xa C:\Users\19156\Desktop\DualModeKeyboard\LIB\libCH57xBLE.a(ll_connect.o)
 .text.ll_connect_get_master_number
                0x0000000000000000       0x1c C:\Users\19156\Desktop\DualModeKeyboard\LIB\libCH57xBLE.a(ll_connect.o)
 .text.ll_connect_get_start_point
                0x0000000000000000      0x136 C:\Users\19156\Desktop\DualModeKeyboard\LIB\libCH57xBLE.a(ll_connect.o)
 .text.LL_GetNumberOfUnAckPacket
                0x0000000000000000       0x26 C:\Users\19156\Desktop\DualModeKeyboard\LIB\libCH57xBLE.a(ll_connect.o)
 .text          0x0000000000000000        0x0 C:\Users\19156\Desktop\DualModeKeyboard\LIB\libCH57xBLE.a(ll_core.o)
 .data          0x0000000000000000        0x0 C:\Users\19156\Desktop\DualModeKeyboard\LIB\libCH57xBLE.a(ll_core.o)
 .bss           0x0000000000000000        0x0 C:\Users\19156\Desktop\DualModeKeyboard\LIB\libCH57xBLE.a(ll_core.o)
 .text          0x0000000000000000        0x0 C:\Users\19156\Desktop\DualModeKeyboard\LIB\libCH57xBLE.a(ll_hop.o)
 .data          0x0000000000000000        0x0 C:\Users\19156\Desktop\DualModeKeyboard\LIB\libCH57xBLE.a(ll_hop.o)
 .bss           0x0000000000000000        0x0 C:\Users\19156\Desktop\DualModeKeyboard\LIB\libCH57xBLE.a(ll_hop.o)
 .text.LL_HopAtleastTwoChannels
                0x0000000000000000       0x40 C:\Users\19156\Desktop\DualModeKeyboard\LIB\libCH57xBLE.a(ll_hop.o)
 .text          0x0000000000000000        0x0 C:\Users\19156\Desktop\DualModeKeyboard\LIB\libCH57xBLE.a(ll_master.o)
 .data          0x0000000000000000        0x0 C:\Users\19156\Desktop\DualModeKeyboard\LIB\libCH57xBLE.a(ll_master.o)
 .bss           0x0000000000000000        0x0 C:\Users\19156\Desktop\DualModeKeyboard\LIB\libCH57xBLE.a(ll_master.o)
 .text.LL_MasterSetFirstTimer
                0x0000000000000000      0x140 C:\Users\19156\Desktop\DualModeKeyboard\LIB\libCH57xBLE.a(ll_master.o)
 .text.LL_MasterCreateCore
                0x0000000000000000      0x162 C:\Users\19156\Desktop\DualModeKeyboard\LIB\libCH57xBLE.a(ll_master.o)
 .text.LL_MasterEnalbe
                0x0000000000000000       0x18 C:\Users\19156\Desktop\DualModeKeyboard\LIB\libCH57xBLE.a(ll_master.o)
 .text          0x0000000000000000        0x0 C:\Users\19156\Desktop\DualModeKeyboard\LIB\libCH57xBLE.a(ll_pdu.o)
 .data          0x0000000000000000        0x0 C:\Users\19156\Desktop\DualModeKeyboard\LIB\libCH57xBLE.a(ll_pdu.o)
 .bss           0x0000000000000000        0x0 C:\Users\19156\Desktop\DualModeKeyboard\LIB\libCH57xBLE.a(ll_pdu.o)
 .text          0x0000000000000000        0x0 C:\Users\19156\Desktop\DualModeKeyboard\LIB\libCH57xBLE.a(ll_report.o)
 .data          0x0000000000000000        0x0 C:\Users\19156\Desktop\DualModeKeyboard\LIB\libCH57xBLE.a(ll_report.o)
 .bss           0x0000000000000000        0x0 C:\Users\19156\Desktop\DualModeKeyboard\LIB\libCH57xBLE.a(ll_report.o)
 .text          0x0000000000000000        0x0 C:\Users\19156\Desktop\DualModeKeyboard\LIB\libCH57xBLE.a(ll_scan.o)
 .data          0x0000000000000000        0x0 C:\Users\19156\Desktop\DualModeKeyboard\LIB\libCH57xBLE.a(ll_scan.o)
 .bss           0x0000000000000000        0x0 C:\Users\19156\Desktop\DualModeKeyboard\LIB\libCH57xBLE.a(ll_scan.o)
 .text.llScanTraverseaChannel
                0x0000000000000000       0xe2 C:\Users\19156\Desktop\DualModeKeyboard\LIB\libCH57xBLE.a(ll_scan.o)
 .text.llScanSet
                0x0000000000000000      0x152 C:\Users\19156\Desktop\DualModeKeyboard\LIB\libCH57xBLE.a(ll_scan.o)
 .text.llScanCreateCore
                0x0000000000000000       0x7a C:\Users\19156\Desktop\DualModeKeyboard\LIB\libCH57xBLE.a(ll_scan.o)
 .text.llScanStart
                0x0000000000000000       0x94 C:\Users\19156\Desktop\DualModeKeyboard\LIB\libCH57xBLE.a(ll_scan.o)
 .text.ll_scan_filter
                0x0000000000000000      0x152 C:\Users\19156\Desktop\DualModeKeyboard\LIB\libCH57xBLE.a(ll_scan.o)
 .text.ll_scan_whitelist
                0x0000000000000000       0x32 C:\Users\19156\Desktop\DualModeKeyboard\LIB\libCH57xBLE.a(ll_scan.o)
 .text.ll_scan_add_advertising_to_report
                0x0000000000000000      0x142 C:\Users\19156\Desktop\DualModeKeyboard\LIB\libCH57xBLE.a(ll_scan.o)
 .text.ll_scan_remove_all_report
                0x0000000000000000       0x26 C:\Users\19156\Desktop\DualModeKeyboard\LIB\libCH57xBLE.a(ll_scan.o)
 .text.ll_scan_rx
                0x0000000000000000      0x2c2 C:\Users\19156\Desktop\DualModeKeyboard\LIB\libCH57xBLE.a(ll_scan.o)
 .text.ll_scan_process
                0x0000000000000000      0x198 C:\Users\19156\Desktop\DualModeKeyboard\LIB\libCH57xBLE.a(ll_scan.o)
 .text.LL_ScanShut
                0x0000000000000000       0x30 C:\Users\19156\Desktop\DualModeKeyboard\LIB\libCH57xBLE.a(ll_scan.o)
 .text.LL_ScanEnable
                0x0000000000000000       0x68 C:\Users\19156\Desktop\DualModeKeyboard\LIB\libCH57xBLE.a(ll_scan.o)
 .text          0x0000000000000000        0x0 C:\Users\19156\Desktop\DualModeKeyboard\LIB\libCH57xBLE.a(ll_slave.o)
 .data          0x0000000000000000        0x0 C:\Users\19156\Desktop\DualModeKeyboard\LIB\libCH57xBLE.a(ll_slave.o)
 .bss           0x0000000000000000        0x0 C:\Users\19156\Desktop\DualModeKeyboard\LIB\libCH57xBLE.a(ll_slave.o)
 .text          0x0000000000000000        0x0 C:\Users\19156\Desktop\DualModeKeyboard\LIB\libCH57xBLE.a(ll_whitelist.o)
 .data          0x0000000000000000        0x0 C:\Users\19156\Desktop\DualModeKeyboard\LIB\libCH57xBLE.a(ll_whitelist.o)
 .bss           0x0000000000000000        0x0 C:\Users\19156\Desktop\DualModeKeyboard\LIB\libCH57xBLE.a(ll_whitelist.o)
 .text.LL_WhitelistRemove
                0x0000000000000000       0x92 C:\Users\19156\Desktop\DualModeKeyboard\LIB\libCH57xBLE.a(ll_whitelist.o)
 .text          0x0000000000000000        0x0 C:\Users\19156\Desktop\DualModeKeyboard\LIB\libCH57xBLE.a(aes.o)
 .data          0x0000000000000000        0x0 C:\Users\19156\Desktop\DualModeKeyboard\LIB\libCH57xBLE.a(aes.o)
 .bss           0x0000000000000000        0x0 C:\Users\19156\Desktop\DualModeKeyboard\LIB\libCH57xBLE.a(aes.o)
 .text.AES_DevAESDec
                0x0000000000000000      0x1ae C:\Users\19156\Desktop\DualModeKeyboard\LIB\libCH57xBLE.a(aes.o)
 .text.LL_Decrypt
                0x0000000000000000       0x14 C:\Users\19156\Desktop\DualModeKeyboard\LIB\libCH57xBLE.a(aes.o)
 .text          0x0000000000000000        0x0 C:\Users\19156\Desktop\DualModeKeyboard\LIB\libCH57xBLE.a(bb.o)
 .data          0x0000000000000000        0x0 C:\Users\19156\Desktop\DualModeKeyboard\LIB\libCH57xBLE.a(bb.o)
 .bss           0x0000000000000000        0x0 C:\Users\19156\Desktop\DualModeKeyboard\LIB\libCH57xBLE.a(bb.o)
 .text.BLE_ReadRssi
                0x0000000000000000       0x14 C:\Users\19156\Desktop\DualModeKeyboard\LIB\libCH57xBLE.a(bb.o)
 .text          0x0000000000000000        0x0 C:\Users\19156\Desktop\DualModeKeyboard\LIB\libCH57xBLE.a(dma.o)
 .data          0x0000000000000000        0x0 C:\Users\19156\Desktop\DualModeKeyboard\LIB\libCH57xBLE.a(dma.o)
 .bss           0x0000000000000000        0x0 C:\Users\19156\Desktop\DualModeKeyboard\LIB\libCH57xBLE.a(dma.o)
 .text          0x0000000000000000        0x0 C:\Users\19156\Desktop\DualModeKeyboard\LIB\libCH57xBLE.a(ip.o)
 .data          0x0000000000000000        0x0 C:\Users\19156\Desktop\DualModeKeyboard\LIB\libCH57xBLE.a(ip.o)
 .bss           0x0000000000000000        0x0 C:\Users\19156\Desktop\DualModeKeyboard\LIB\libCH57xBLE.a(ip.o)
 .text.BLE_ReadCfo
                0x0000000000000000        0xe C:\Users\19156\Desktop\DualModeKeyboard\LIB\libCH57xBLE.a(ip.o)
 .text.GetTxPower
                0x0000000000000000       0x1c C:\Users\19156\Desktop\DualModeKeyboard\LIB\libCH57xBLE.a(ip.o)
 .text.ll_hw_api_rx_direct_test
                0x0000000000000000       0x9c C:\Users\19156\Desktop\DualModeKeyboard\LIB\libCH57xBLE.a(ip.o)
 .text.BLE_PAControlInit
                0x0000000000000000       0x20 C:\Users\19156\Desktop\DualModeKeyboard\LIB\libCH57xBLE.a(ip.o)
 .text.BLE_AccessAddressGenerate
                0x0000000000000000       0xbe C:\Users\19156\Desktop\DualModeKeyboard\LIB\libCH57xBLE.a(ip.o)
 .rodata.TX_POWER
                0x0000000000000000       0x20 C:\Users\19156\Desktop\DualModeKeyboard\LIB\libCH57xBLE.a(ip.o)
 .text          0x0000000000000000        0x0 C:\Users\19156\Desktop\DualModeKeyboard\LIB\libCH57xBLE.a(lle.o)
 .data          0x0000000000000000        0x0 C:\Users\19156\Desktop\DualModeKeyboard\LIB\libCH57xBLE.a(lle.o)
 .bss           0x0000000000000000        0x0 C:\Users\19156\Desktop\DualModeKeyboard\LIB\libCH57xBLE.a(lle.o)
 .text          0x0000000000000000        0x0 C:\Users\19156\Desktop\DualModeKeyboard\LIB\libCH57xBLE.a(rf_fh.o)
 .data          0x0000000000000000        0x0 C:\Users\19156\Desktop\DualModeKeyboard\LIB\libCH57xBLE.a(rf_fh.o)
 .bss           0x0000000000000000        0x0 C:\Users\19156\Desktop\DualModeKeyboard\LIB\libCH57xBLE.a(rf_fh.o)
 .text.RF_FrequencyHoppingGet
                0x0000000000000000       0xbc C:\Users\19156\Desktop\DualModeKeyboard\LIB\libCH57xBLE.a(rf_fh.o)
 .text.rfStop   0x0000000000000000       0x28 C:\Users\19156\Desktop\DualModeKeyboard\LIB\libCH57xBLE.a(rf_fh.o)
 .text.RF_TxProcess
                0x0000000000000000      0x15a C:\Users\19156\Desktop\DualModeKeyboard\LIB\libCH57xBLE.a(rf_fh.o)
 .text.RF_BondingErase
                0x0000000000000000       0x58 C:\Users\19156\Desktop\DualModeKeyboard\LIB\libCH57xBLE.a(rf_fh.o)
 .text.RF_Config
                0x0000000000000000      0x12e C:\Users\19156\Desktop\DualModeKeyboard\LIB\libCH57xBLE.a(rf_fh.o)
 .text.RF_Tx    0x0000000000000000      0x2c4 C:\Users\19156\Desktop\DualModeKeyboard\LIB\libCH57xBLE.a(rf_fh.o)
 .text.RF_FrequencyHoppingTx
                0x0000000000000000      0x3be C:\Users\19156\Desktop\DualModeKeyboard\LIB\libCH57xBLE.a(rf_fh.o)
 .text.RF_RxProcess
                0x0000000000000000      0x3ea C:\Users\19156\Desktop\DualModeKeyboard\LIB\libCH57xBLE.a(rf_fh.o)
 .text.RF_Shut  0x0000000000000000       0x9c C:\Users\19156\Desktop\DualModeKeyboard\LIB\libCH57xBLE.a(rf_fh.o)
 .text.RF_FrequencyHoppingShut
                0x0000000000000000       0x92 C:\Users\19156\Desktop\DualModeKeyboard\LIB\libCH57xBLE.a(rf_fh.o)
 .text.rf_hop_heart_beat
                0x0000000000000000      0x128 C:\Users\19156\Desktop\DualModeKeyboard\LIB\libCH57xBLE.a(rf_fh.o)
 .text.RFFH_ProcessEvent
                0x0000000000000000      0x110 C:\Users\19156\Desktop\DualModeKeyboard\LIB\libCH57xBLE.a(rf_fh.o)
 .text.RF_FrequencyHoppingRx
                0x0000000000000000      0x3b2 C:\Users\19156\Desktop\DualModeKeyboard\LIB\libCH57xBLE.a(rf_fh.o)
 .text.RF_SetChannel
                0x0000000000000000       0x56 C:\Users\19156\Desktop\DualModeKeyboard\LIB\libCH57xBLE.a(rf_fh.o)
 .text.RF_RoleInit
                0x0000000000000000       0x58 C:\Users\19156\Desktop\DualModeKeyboard\LIB\libCH57xBLE.a(rf_fh.o)
 .rodata.RF_FrequencyHoppingTx.str1.4
                0x0000000000000000        0x7 C:\Users\19156\Desktop\DualModeKeyboard\LIB\libCH57xBLE.a(rf_fh.o)
 .text          0x0000000000000000        0x0 C:\Users\19156\Desktop\DualModeKeyboard\LIB\libCH57xBLE.a(rfend.o)
 .data          0x0000000000000000        0x0 C:\Users\19156\Desktop\DualModeKeyboard\LIB\libCH57xBLE.a(rfend.o)
 .bss           0x0000000000000000        0x0 C:\Users\19156\Desktop\DualModeKeyboard\LIB\libCH57xBLE.a(rfend.o)
 .text.RFEND_SetDACREF_TUNE
                0x0000000000000000       0x20 C:\Users\19156\Desktop\DualModeKeyboard\LIB\libCH57xBLE.a(rfend.o)
 .text.RFEND_GetDACREF_TUNE
                0x0000000000000000       0x12 C:\Users\19156\Desktop\DualModeKeyboard\LIB\libCH57xBLE.a(rfend.o)
 .text.RFEND_SetSensitivity
                0x0000000000000000       0x9a C:\Users\19156\Desktop\DualModeKeyboard\LIB\libCH57xBLE.a(rfend.o)
 .text.RFEND_SetAdcMode
                0x0000000000000000        0xa C:\Users\19156\Desktop\DualModeKeyboard\LIB\libCH57xBLE.a(rfend.o)
 .text.RFEND_TXCtuneSet
                0x0000000000000000       0x7e C:\Users\19156\Desktop\DualModeKeyboard\LIB\libCH57xBLE.a(rfend.o)
 .text.RFEND_TXCtuneGet
                0x0000000000000000       0x70 C:\Users\19156\Desktop\DualModeKeyboard\LIB\libCH57xBLE.a(rfend.o)
 .text          0x0000000000000000        0x0 C:\Users\19156\Desktop\DualModeKeyboard\LIB\libCH57xBLE.a(api_c.o)
 .data          0x0000000000000000        0x0 C:\Users\19156\Desktop\DualModeKeyboard\LIB\libCH57xBLE.a(api_c.o)
 .bss           0x0000000000000000        0x0 C:\Users\19156\Desktop\DualModeKeyboard\LIB\libCH57xBLE.a(api_c.o)
 .text.dtmRx    0x0000000000000000       0x52 C:\Users\19156\Desktop\DualModeKeyboard\LIB\libCH57xBLE.a(api_c.o)
 .text.API_ReadRemoteVersionInfoCmd
                0x0000000000000000       0x42 C:\Users\19156\Desktop\DualModeKeyboard\LIB\libCH57xBLE.a(api_c.o)
 .text.API_SetEventMaskCmd
                0x0000000000000000       0x38 C:\Users\19156\Desktop\DualModeKeyboard\LIB\libCH57xBLE.a(api_c.o)
 .text.API_ResetCmd
                0x0000000000000000       0x2e C:\Users\19156\Desktop\DualModeKeyboard\LIB\libCH57xBLE.a(api_c.o)
 .text.API_ReadTransmitPowerLevelCmd
                0x0000000000000000       0x3e C:\Users\19156\Desktop\DualModeKeyboard\LIB\libCH57xBLE.a(api_c.o)
 .text.API_SetControllerToHostFlowCtrlCmd
                0x0000000000000000       0x4a C:\Users\19156\Desktop\DualModeKeyboard\LIB\libCH57xBLE.a(api_c.o)
 .text.API_HostBufferSizeCmd
                0x0000000000000000       0x2c C:\Users\19156\Desktop\DualModeKeyboard\LIB\libCH57xBLE.a(api_c.o)
 .text.API_SetEventMaskPage2Cmd
                0x0000000000000000       0x38 C:\Users\19156\Desktop\DualModeKeyboard\LIB\libCH57xBLE.a(api_c.o)
 .text.API_ReadAuthPayloadTimeoutCmd
                0x0000000000000000       0x40 C:\Users\19156\Desktop\DualModeKeyboard\LIB\libCH57xBLE.a(api_c.o)
 .text.API_WriteAuthPayloadTimeoutCmd
                0x0000000000000000       0x3c C:\Users\19156\Desktop\DualModeKeyboard\LIB\libCH57xBLE.a(api_c.o)
 .text.API_ReadLocalVersionInfoCmd
                0x0000000000000000       0x2e C:\Users\19156\Desktop\DualModeKeyboard\LIB\libCH57xBLE.a(api_c.o)
 .text.API_ReadLocalSupportedCommandsCmd
                0x0000000000000000       0x5a C:\Users\19156\Desktop\DualModeKeyboard\LIB\libCH57xBLE.a(api_c.o)
 .text.API_ReadLocalSupportedFeaturesCmd
                0x0000000000000000       0x2e C:\Users\19156\Desktop\DualModeKeyboard\LIB\libCH57xBLE.a(api_c.o)
 .text.API_ReadReadBufferSizeCmd
                0x0000000000000000       0x3a C:\Users\19156\Desktop\DualModeKeyboard\LIB\libCH57xBLE.a(api_c.o)
 .text.API_ReadRssiCmd
                0x0000000000000000       0x40 C:\Users\19156\Desktop\DualModeKeyboard\LIB\libCH57xBLE.a(api_c.o)
 .text.API_LE_SetEventMaskCmd
                0x0000000000000000       0x36 C:\Users\19156\Desktop\DualModeKeyboard\LIB\libCH57xBLE.a(api_c.o)
 .text.API_LE_ReadLocalSupportedFeaturesCmd
                0x0000000000000000       0x2e C:\Users\19156\Desktop\DualModeKeyboard\LIB\libCH57xBLE.a(api_c.o)
 .text.API_LE_ReadAdvChanTxPowerCmd
                0x0000000000000000       0x2e C:\Users\19156\Desktop\DualModeKeyboard\LIB\libCH57xBLE.a(api_c.o)
 .text.API_LE_SetScanParamCmd
                0x0000000000000000       0x2c C:\Users\19156\Desktop\DualModeKeyboard\LIB\libCH57xBLE.a(api_c.o)
 .text.API_LE_CreateConnCmd
                0x0000000000000000       0x3e C:\Users\19156\Desktop\DualModeKeyboard\LIB\libCH57xBLE.a(api_c.o)
 .text.API_LE_ReadWhiteListSizeCmd
                0x0000000000000000       0x2e C:\Users\19156\Desktop\DualModeKeyboard\LIB\libCH57xBLE.a(api_c.o)
 .text.API_LE_RemoveWhiteListCmd
                0x0000000000000000       0x2c C:\Users\19156\Desktop\DualModeKeyboard\LIB\libCH57xBLE.a(api_c.o)
 .text.API_LE_SetHostChanClassificationCmd
                0x0000000000000000       0x2c C:\Users\19156\Desktop\DualModeKeyboard\LIB\libCH57xBLE.a(api_c.o)
 .text.API_LE_ReadChannelMapCmd
                0x0000000000000000       0x46 C:\Users\19156\Desktop\DualModeKeyboard\LIB\libCH57xBLE.a(api_c.o)
 .text.API_LE_ReadRemoteUsedFeaturesCmd
                0x0000000000000000       0x42 C:\Users\19156\Desktop\DualModeKeyboard\LIB\libCH57xBLE.a(api_c.o)
 .text.API_LE_EncryptCmd
                0x0000000000000000       0x2c C:\Users\19156\Desktop\DualModeKeyboard\LIB\libCH57xBLE.a(api_c.o)
 .text.API_LE_ReadSupportedStatesCmd
                0x0000000000000000       0x2e C:\Users\19156\Desktop\DualModeKeyboard\LIB\libCH57xBLE.a(api_c.o)
 .text.API_LE_ReceiverTestCmd
                0x0000000000000000       0x4c C:\Users\19156\Desktop\DualModeKeyboard\LIB\libCH57xBLE.a(api_c.o)
 .text.API_LE_TransmitterTestCmd
                0x0000000000000000       0xa2 C:\Users\19156\Desktop\DualModeKeyboard\LIB\libCH57xBLE.a(api_c.o)
 .text.API_LE_TestEndCmd
                0x0000000000000000       0x3e C:\Users\19156\Desktop\DualModeKeyboard\LIB\libCH57xBLE.a(api_c.o)
 .text.API_MB_SetTxPowerCmd
                0x0000000000000000       0x2c C:\Users\19156\Desktop\DualModeKeyboard\LIB\libCH57xBLE.a(api_c.o)
 .text.API_MB_TuneXT32MCmd
                0x0000000000000000        0x4 C:\Users\19156\Desktop\DualModeKeyboard\LIB\libCH57xBLE.a(api_c.o)
 .text.API_MB_SingleCarrierCmd
                0x0000000000000000       0x2c C:\Users\19156\Desktop\DualModeKeyboard\LIB\libCH57xBLE.a(api_c.o)
 .text.API_MB_WriteRegisterCmd
                0x0000000000000000       0x2a C:\Users\19156\Desktop\DualModeKeyboard\LIB\libCH57xBLE.a(api_c.o)
 .text.API_MB_ReadRegisterCmd
                0x0000000000000000       0x58 C:\Users\19156\Desktop\DualModeKeyboard\LIB\libCH57xBLE.a(api_c.o)
 .text.API_LE_SetDataLengthCmd
                0x0000000000000000       0x3a C:\Users\19156\Desktop\DualModeKeyboard\LIB\libCH57xBLE.a(api_c.o)
 .text.API_LE_ReadSuggestedDefaultDataLength
                0x0000000000000000       0x30 C:\Users\19156\Desktop\DualModeKeyboard\LIB\libCH57xBLE.a(api_c.o)
 .text.API_LE_WriteSuggestedDefaultDataLength
                0x0000000000000000       0x2e C:\Users\19156\Desktop\DualModeKeyboard\LIB\libCH57xBLE.a(api_c.o)
 .text.API_LE_ReadLocalPublicKeyCmd
                0x0000000000000000        0x4 C:\Users\19156\Desktop\DualModeKeyboard\LIB\libCH57xBLE.a(api_c.o)
 .text.API_LE_GenerateDHKeyCmd
                0x0000000000000000        0x4 C:\Users\19156\Desktop\DualModeKeyboard\LIB\libCH57xBLE.a(api_c.o)
 .text.API_LE_RemoveDeviceFromResolvingList
                0x0000000000000000       0x2e C:\Users\19156\Desktop\DualModeKeyboard\LIB\libCH57xBLE.a(api_c.o)
 .text.API_LE_ReadResolvingListSizeCmd
                0x0000000000000000       0x30 C:\Users\19156\Desktop\DualModeKeyboard\LIB\libCH57xBLE.a(api_c.o)
 .text.API_LE_ReadPeerResolvableAddressCmd
                0x0000000000000000       0x30 C:\Users\19156\Desktop\DualModeKeyboard\LIB\libCH57xBLE.a(api_c.o)
 .text.API_LE_ReadLocalResolvableAddressCmd
                0x0000000000000000       0x30 C:\Users\19156\Desktop\DualModeKeyboard\LIB\libCH57xBLE.a(api_c.o)
 .text.API_LE_ReadMaximumDataLengthCmd
                0x0000000000000000       0x64 C:\Users\19156\Desktop\DualModeKeyboard\LIB\libCH57xBLE.a(api_c.o)
 .text.API_GetConnectNumeber
                0x0000000000000000        0xa C:\Users\19156\Desktop\DualModeKeyboard\LIB\libCH57xBLE.a(api_c.o)
 .text          0x0000000000000000        0x0 C:\Users\19156\Desktop\DualModeKeyboard\LIB\libCH57xBLE.a(ctl_input.o)
 .data          0x0000000000000000        0x0 C:\Users\19156\Desktop\DualModeKeyboard\LIB\libCH57xBLE.a(ctl_input.o)
 .bss           0x0000000000000000        0x0 C:\Users\19156\Desktop\DualModeKeyboard\LIB\libCH57xBLE.a(ctl_input.o)
 .text.LL_ReceiverTest
                0x0000000000000000       0x5e C:\Users\19156\Desktop\DualModeKeyboard\LIB\libCH57xBLE.a(ctl_input.o)
 .text.LL_TestEnd
                0x0000000000000000       0x84 C:\Users\19156\Desktop\DualModeKeyboard\LIB\libCH57xBLE.a(ctl_input.o)
 .text.LL_SetTxPowerLevel
                0x0000000000000000       0xb4 C:\Users\19156\Desktop\DualModeKeyboard\LIB\libCH57xBLE.a(ctl_input.o)
 .text.LL_SingleChannel
                0x0000000000000000       0x9e C:\Users\19156\Desktop\DualModeKeyboard\LIB\libCH57xBLE.a(ctl_input.o)
 .text.LL_ReadRemoteVersionInfo
                0x0000000000000000       0x6c C:\Users\19156\Desktop\DualModeKeyboard\LIB\libCH57xBLE.a(ctl_input.o)
 .text.LL_Reset
                0x0000000000000000       0x7e C:\Users\19156\Desktop\DualModeKeyboard\LIB\libCH57xBLE.a(ctl_input.o)
 .text.LL_ReadTxPowerLevel
                0x0000000000000000       0x44 C:\Users\19156\Desktop\DualModeKeyboard\LIB\libCH57xBLE.a(ctl_input.o)
 .text.LL_SetControllerToHostFlowCtrl
                0x0000000000000000       0x18 C:\Users\19156\Desktop\DualModeKeyboard\LIB\libCH57xBLE.a(ctl_input.o)
 .text.LL_ReadAuthPayloadTimeout
                0x0000000000000000       0x2c C:\Users\19156\Desktop\DualModeKeyboard\LIB\libCH57xBLE.a(ctl_input.o)
 .text.LL_WriteAuthPayloadTimeout
                0x0000000000000000       0x6a C:\Users\19156\Desktop\DualModeKeyboard\LIB\libCH57xBLE.a(ctl_input.o)
 .text.LL_ReadLocalVersionInfo
                0x0000000000000000       0x52 C:\Users\19156\Desktop\DualModeKeyboard\LIB\libCH57xBLE.a(ctl_input.o)
 .text.LL_ReadLocalSupportedCommands
                0x0000000000000000       0x20 C:\Users\19156\Desktop\DualModeKeyboard\LIB\libCH57xBLE.a(ctl_input.o)
 .text.LL_ReadLocalSupportedFeatures
                0x0000000000000000       0x1e C:\Users\19156\Desktop\DualModeKeyboard\LIB\libCH57xBLE.a(ctl_input.o)
 .text.LL_ReadRssi
                0x0000000000000000       0x26 C:\Users\19156\Desktop\DualModeKeyboard\LIB\libCH57xBLE.a(ctl_input.o)
 .text.LL_LE_ReadLocalSupportedFeatures
                0x0000000000000000        0x8 C:\Users\19156\Desktop\DualModeKeyboard\LIB\libCH57xBLE.a(ctl_input.o)
 .text.LL_ReadAdvChanTxPower
                0x0000000000000000       0x16 C:\Users\19156\Desktop\DualModeKeyboard\LIB\libCH57xBLE.a(ctl_input.o)
 .text.LL_SetScanParam
                0x0000000000000000       0x70 C:\Users\19156\Desktop\DualModeKeyboard\LIB\libCH57xBLE.a(ctl_input.o)
 .text.LL_CreateConn
                0x0000000000000000      0x1e6 C:\Users\19156\Desktop\DualModeKeyboard\LIB\libCH57xBLE.a(ctl_input.o)
 .text.LL_ReadSuggestedDefaultDataLength
                0x0000000000000000       0x30 C:\Users\19156\Desktop\DualModeKeyboard\LIB\libCH57xBLE.a(ctl_input.o)
 .text.LL_WriteSuggestedDefaultDataLength
                0x0000000000000000       0x14 C:\Users\19156\Desktop\DualModeKeyboard\LIB\libCH57xBLE.a(ctl_input.o)
 .text.LL_SetDataLength
                0x0000000000000000       0x66 C:\Users\19156\Desktop\DualModeKeyboard\LIB\libCH57xBLE.a(ctl_input.o)
 .text.LL_ReadSupportedStates
                0x0000000000000000       0x4e C:\Users\19156\Desktop\DualModeKeyboard\LIB\libCH57xBLE.a(ctl_input.o)
 .text.LL_RemoveWhiteListDevice
                0x0000000000000000       0x76 C:\Users\19156\Desktop\DualModeKeyboard\LIB\libCH57xBLE.a(ctl_input.o)
 .text.LL_ReadWlSize
                0x0000000000000000       0x10 C:\Users\19156\Desktop\DualModeKeyboard\LIB\libCH57xBLE.a(ctl_input.o)
 .text.LL_SetHostChanClassification
                0x0000000000000000       0x46 C:\Users\19156\Desktop\DualModeKeyboard\LIB\libCH57xBLE.a(ctl_input.o)
 .text.LL_ReadChanMap
                0x0000000000000000       0x32 C:\Users\19156\Desktop\DualModeKeyboard\LIB\libCH57xBLE.a(ctl_input.o)
 .text.LL_ReadRemoteUsedFeatures
                0x0000000000000000       0x32 C:\Users\19156\Desktop\DualModeKeyboard\LIB\libCH57xBLE.a(ctl_input.o)
 .text.LL_RemoveDeviceFromResolvingList
                0x0000000000000000       0x7a C:\Users\19156\Desktop\DualModeKeyboard\LIB\libCH57xBLE.a(ctl_input.o)
 .text.LL_ReadResolvingListSize
                0x0000000000000000       0x10 C:\Users\19156\Desktop\DualModeKeyboard\LIB\libCH57xBLE.a(ctl_input.o)
 .text.LL_ReadPeerResolvableAddress
                0x0000000000000000       0x44 C:\Users\19156\Desktop\DualModeKeyboard\LIB\libCH57xBLE.a(ctl_input.o)
 .text.LL_ReadLocalResolvableAddress
                0x0000000000000000       0x44 C:\Users\19156\Desktop\DualModeKeyboard\LIB\libCH57xBLE.a(ctl_input.o)
 .rodata.supportedCmdsTable
                0x0000000000000000       0x40 C:\Users\19156\Desktop\DualModeKeyboard\LIB\libCH57xBLE.a(ctl_input.o)
 .text          0x0000000000000000        0x0 C:\Users\19156\Desktop\DualModeKeyboard\LIB\libCH57xBLE.a(ctl_output.o)
 .data          0x0000000000000000        0x0 C:\Users\19156\Desktop\DualModeKeyboard\LIB\libCH57xBLE.a(ctl_output.o)
 .bss           0x0000000000000000        0x0 C:\Users\19156\Desktop\DualModeKeyboard\LIB\libCH57xBLE.a(ctl_output.o)
 .text.HCI_SetEventMask
                0x0000000000000000        0x2 C:\Users\19156\Desktop\DualModeKeyboard\LIB\libCH57xBLE.a(ctl_output.o)
 .text.HCI_SetEventMaskPage2
                0x0000000000000000        0x2 C:\Users\19156\Desktop\DualModeKeyboard\LIB\libCH57xBLE.a(ctl_output.o)
 .text.HCI_SetLeEventMask
                0x0000000000000000       0x14 C:\Users\19156\Desktop\DualModeKeyboard\LIB\libCH57xBLE.a(ctl_output.o)
 .text.HCI_LE_AdvertisingReportCback
                0x0000000000000000        0xc C:\Users\19156\Desktop\DualModeKeyboard\LIB\libCH57xBLE.a(ctl_output.o)
 .text.HCI_LE_ReadLocalPublicKeyCompleteCback
                0x0000000000000000        0x8 C:\Users\19156\Desktop\DualModeKeyboard\LIB\libCH57xBLE.a(ctl_output.o)
 .text.HCI_LE_GenerateDHKeyCompleteCback
                0x0000000000000000        0x8 C:\Users\19156\Desktop\DualModeKeyboard\LIB\libCH57xBLE.a(ctl_output.o)
 .text.HCI_LE_DirectAdvertisingReportCback
                0x0000000000000000        0xc C:\Users\19156\Desktop\DualModeKeyboard\LIB\libCH57xBLE.a(ctl_output.o)
 .text.HCI_HardwareErrorCback
                0x0000000000000000        0x8 C:\Users\19156\Desktop\DualModeKeyboard\LIB\libCH57xBLE.a(ctl_output.o)
 .text          0x0000000000000000        0x0 C:\Users\19156\Desktop\DualModeKeyboard\LIB\libCH57xBLE.a(gapbondmgr.o)
 .data          0x0000000000000000        0x0 C:\Users\19156\Desktop\DualModeKeyboard\LIB\libCH57xBLE.a(gapbondmgr.o)
 .bss           0x0000000000000000        0x0 C:\Users\19156\Desktop\DualModeKeyboard\LIB\libCH57xBLE.a(gapbondmgr.o)
 .text.GAPBondMgr_CentralRegister
                0x0000000000000000       0x46 C:\Users\19156\Desktop\DualModeKeyboard\LIB\libCH57xBLE.a(gapbondmgr.o)
 .text.GAPBondMgr_CheckNVLen
                0x0000000000000000       0x3a C:\Users\19156\Desktop\DualModeKeyboard\LIB\libCH57xBLE.a(gapbondmgr.o)
 .rodata.GAPBondMgr_CheckNVLen
                0x0000000000000000       0x18 C:\Users\19156\Desktop\DualModeKeyboard\LIB\libCH57xBLE.a(gapbondmgr.o)
 .text          0x0000000000000000        0x0 C:\Users\19156\Desktop\DualModeKeyboard\LIB\libCH57xBLE.a(peripheral.o)
 .data          0x0000000000000000        0x0 C:\Users\19156\Desktop\DualModeKeyboard\LIB\libCH57xBLE.a(peripheral.o)
 .bss           0x0000000000000000        0x0 C:\Users\19156\Desktop\DualModeKeyboard\LIB\libCH57xBLE.a(peripheral.o)
 .text.GAPRole_PeripheralLinkNum
                0x0000000000000000        0x8 C:\Users\19156\Desktop\DualModeKeyboard\LIB\libCH57xBLE.a(peripheral.o)
 .text          0x0000000000000000        0x0 C:\Users\19156\Desktop\DualModeKeyboard\LIB\libCH57xBLE.a(role.o)
 .data          0x0000000000000000        0x0 C:\Users\19156\Desktop\DualModeKeyboard\LIB\libCH57xBLE.a(role.o)
 .bss           0x0000000000000000        0x0 C:\Users\19156\Desktop\DualModeKeyboard\LIB\libCH57xBLE.a(role.o)
 .text.GAPRole_RegisterCentralTaskID
                0x0000000000000000       0x2e C:\Users\19156\Desktop\DualModeKeyboard\LIB\libCH57xBLE.a(role.o)
 .text.GAPRole_ReadRssiCmd
                0x0000000000000000        0x8 C:\Users\19156\Desktop\DualModeKeyboard\LIB\libCH57xBLE.a(role.o)
 .text.GAPRole_ObserverInit
                0x0000000000000000       0xa8 C:\Users\19156\Desktop\DualModeKeyboard\LIB\libCH57xBLE.a(role.o)
 .text.GAPRole_BroadcasterInit
                0x0000000000000000       0xa8 C:\Users\19156\Desktop\DualModeKeyboard\LIB\libCH57xBLE.a(role.o)
 .text.GAPRole_CentralInit
                0x0000000000000000       0xbe C:\Users\19156\Desktop\DualModeKeyboard\LIB\libCH57xBLE.a(role.o)
 .text          0x0000000000000000        0x0 C:\Users\19156\Desktop\DualModeKeyboard\LIB\libCH57xBLE.a(memory.o)
 .data          0x0000000000000000        0x0 C:\Users\19156\Desktop\DualModeKeyboard\LIB\libCH57xBLE.a(memory.o)
 .bss           0x0000000000000000        0x0 C:\Users\19156\Desktop\DualModeKeyboard\LIB\libCH57xBLE.a(memory.o)
 .text.tmos_memory_getlen
                0x0000000000000000       0x2c C:\Users\19156\Desktop\DualModeKeyboard\LIB\libCH57xBLE.a(memory.o)
 .text.tmos_memory_get_max_block_len
                0x0000000000000000       0x30 C:\Users\19156\Desktop\DualModeKeyboard\LIB\libCH57xBLE.a(memory.o)
 .text          0x0000000000000000        0x0 C:\Users\19156\Desktop\DualModeKeyboard\LIB\libCH57xBLE.a(att.o)
 .data          0x0000000000000000        0x0 C:\Users\19156\Desktop\DualModeKeyboard\LIB\libCH57xBLE.a(att.o)
 .bss           0x0000000000000000        0x0 C:\Users\19156\Desktop\DualModeKeyboard\LIB\libCH57xBLE.a(att.o)
 .text.ATT_ConvertUUIDto16
                0x0000000000000000       0x5c C:\Users\19156\Desktop\DualModeKeyboard\LIB\libCH57xBLE.a(att.o)
 .text.ATT_RegisterClient
                0x0000000000000000        0xa C:\Users\19156\Desktop\DualModeKeyboard\LIB\libCH57xBLE.a(att.o)
 .text.ATT_ParseErrorRsp
                0x0000000000000000       0x2e C:\Users\19156\Desktop\DualModeKeyboard\LIB\libCH57xBLE.a(att.o)
 .text.ATT_HandleValueCfm
                0x0000000000000000       0x36 C:\Users\19156\Desktop\DualModeKeyboard\LIB\libCH57xBLE.a(att.o)
 .text          0x0000000000000000        0x0 C:\Users\19156\Desktop\DualModeKeyboard\LIB\libCH57xBLE.a(att_client.o)
 .data          0x0000000000000000        0x0 C:\Users\19156\Desktop\DualModeKeyboard\LIB\libCH57xBLE.a(att_client.o)
 .bss           0x0000000000000000        0x0 C:\Users\19156\Desktop\DualModeKeyboard\LIB\libCH57xBLE.a(att_client.o)
 .text.ATT_BuildExchangeMTUReq
                0x0000000000000000       0x16 C:\Users\19156\Desktop\DualModeKeyboard\LIB\libCH57xBLE.a(att_client.o)
 .text.ATT_BuildFindInfoReq
                0x0000000000000000       0x28 C:\Users\19156\Desktop\DualModeKeyboard\LIB\libCH57xBLE.a(att_client.o)
 .text.ATT_BuildFindByTypeValueReq
                0x0000000000000000       0x40 C:\Users\19156\Desktop\DualModeKeyboard\LIB\libCH57xBLE.a(att_client.o)
 .text.ATT_BuildReadReq
                0x0000000000000000       0x16 C:\Users\19156\Desktop\DualModeKeyboard\LIB\libCH57xBLE.a(att_client.o)
 .text.ATT_BuildReadBlobReq
                0x0000000000000000       0x28 C:\Users\19156\Desktop\DualModeKeyboard\LIB\libCH57xBLE.a(att_client.o)
 .text.ATT_BuildReadMultiReq
                0x0000000000000000        0xc C:\Users\19156\Desktop\DualModeKeyboard\LIB\libCH57xBLE.a(att_client.o)
 .text.ATT_BuildWriteReq
                0x0000000000000000       0x1e C:\Users\19156\Desktop\DualModeKeyboard\LIB\libCH57xBLE.a(att_client.o)
 .text.ATT_BuildPrepareWriteReq
                0x0000000000000000       0x30 C:\Users\19156\Desktop\DualModeKeyboard\LIB\libCH57xBLE.a(att_client.o)
 .text.ATT_BuildExecuteWriteReq
                0x0000000000000000        0xc C:\Users\19156\Desktop\DualModeKeyboard\LIB\libCH57xBLE.a(att_client.o)
 .text.ATT_BuildReadByTypeReq
                0x0000000000000000       0x4a C:\Users\19156\Desktop\DualModeKeyboard\LIB\libCH57xBLE.a(att_client.o)
 .text.ATT_ParseExchangeMTURsp
                0x0000000000000000       0x1e C:\Users\19156\Desktop\DualModeKeyboard\LIB\libCH57xBLE.a(att_client.o)
 .text.ATT_ExchangeMTUReq
                0x0000000000000000       0x50 C:\Users\19156\Desktop\DualModeKeyboard\LIB\libCH57xBLE.a(att_client.o)
 .text.ATT_ParseFindInfoRsp
                0x0000000000000000       0x48 C:\Users\19156\Desktop\DualModeKeyboard\LIB\libCH57xBLE.a(att_client.o)
 .text.ATT_FindInfoReq
                0x0000000000000000       0x16 C:\Users\19156\Desktop\DualModeKeyboard\LIB\libCH57xBLE.a(att_client.o)
 .text.ATT_ParseFindByTypeValueRsp
                0x0000000000000000       0x1c C:\Users\19156\Desktop\DualModeKeyboard\LIB\libCH57xBLE.a(att_client.o)
 .text.ATT_FindByTypeValueReq
                0x0000000000000000       0x48 C:\Users\19156\Desktop\DualModeKeyboard\LIB\libCH57xBLE.a(att_client.o)
 .text.ATT_ParseReadByTypeRsp
                0x0000000000000000       0x32 C:\Users\19156\Desktop\DualModeKeyboard\LIB\libCH57xBLE.a(att_client.o)
 .text.ATT_ReadByTypeReq
                0x0000000000000000       0x2a C:\Users\19156\Desktop\DualModeKeyboard\LIB\libCH57xBLE.a(att_client.o)
 .text.ATT_ParseReadRsp
                0x0000000000000000        0xe C:\Users\19156\Desktop\DualModeKeyboard\LIB\libCH57xBLE.a(att_client.o)
 .text.ATT_ReadReq
                0x0000000000000000       0x16 C:\Users\19156\Desktop\DualModeKeyboard\LIB\libCH57xBLE.a(att_client.o)
 .text.ATT_ParseReadBlobRsp
                0x0000000000000000        0xe C:\Users\19156\Desktop\DualModeKeyboard\LIB\libCH57xBLE.a(att_client.o)
 .text.ATT_ReadBlobReq
                0x0000000000000000       0x16 C:\Users\19156\Desktop\DualModeKeyboard\LIB\libCH57xBLE.a(att_client.o)
 .text.ATT_ParseReadMultiRsp
                0x0000000000000000        0xe C:\Users\19156\Desktop\DualModeKeyboard\LIB\libCH57xBLE.a(att_client.o)
 .text.ATT_ReadMultiReq
                0x0000000000000000       0x4e C:\Users\19156\Desktop\DualModeKeyboard\LIB\libCH57xBLE.a(att_client.o)
 .text.ATT_ParseReadByGrpTypeRsp
                0x0000000000000000       0x34 C:\Users\19156\Desktop\DualModeKeyboard\LIB\libCH57xBLE.a(att_client.o)
 .text.ATT_ReadByGrpTypeReq
                0x0000000000000000       0x2a C:\Users\19156\Desktop\DualModeKeyboard\LIB\libCH57xBLE.a(att_client.o)
 .text.ATT_ParseWriteRsp
                0x0000000000000000        0xa C:\Users\19156\Desktop\DualModeKeyboard\LIB\libCH57xBLE.a(att_client.o)
 .text.ATT_WriteReq
                0x0000000000000000       0x78 C:\Users\19156\Desktop\DualModeKeyboard\LIB\libCH57xBLE.a(att_client.o)
 .text.ATT_ParsePrepareWriteRsp
                0x0000000000000000       0x44 C:\Users\19156\Desktop\DualModeKeyboard\LIB\libCH57xBLE.a(att_client.o)
 .text.ATT_PrepareWriteReq
                0x0000000000000000       0x38 C:\Users\19156\Desktop\DualModeKeyboard\LIB\libCH57xBLE.a(att_client.o)
 .text.ATT_ParseExecuteWriteRsp
                0x0000000000000000        0xa C:\Users\19156\Desktop\DualModeKeyboard\LIB\libCH57xBLE.a(att_client.o)
 .text.ATT_ExecuteWriteReq
                0x0000000000000000       0x16 C:\Users\19156\Desktop\DualModeKeyboard\LIB\libCH57xBLE.a(att_client.o)
 .text.ATT_ParseHandleValueInd
                0x0000000000000000       0x34 C:\Users\19156\Desktop\DualModeKeyboard\LIB\libCH57xBLE.a(att_client.o)
 .text.ATT_HandleValueConfirmation
                0x0000000000000000       0x10 C:\Users\19156\Desktop\DualModeKeyboard\LIB\libCH57xBLE.a(att_client.o)
 .comment       0x0000000000000000       0x34 C:\Users\19156\Desktop\DualModeKeyboard\LIB\libCH57xBLE.a(att_client.o)
 .text          0x0000000000000000        0x0 C:\Users\19156\Desktop\DualModeKeyboard\LIB\libCH57xBLE.a(att_server.o)
 .data          0x0000000000000000        0x0 C:\Users\19156\Desktop\DualModeKeyboard\LIB\libCH57xBLE.a(att_server.o)
 .bss           0x0000000000000000        0x0 C:\Users\19156\Desktop\DualModeKeyboard\LIB\libCH57xBLE.a(att_server.o)
 .text.ATT_ParseHandleValueCfm
                0x0000000000000000        0xa C:\Users\19156\Desktop\DualModeKeyboard\LIB\libCH57xBLE.a(att_server.o)
 .text          0x0000000000000000        0x0 C:\Users\19156\Desktop\DualModeKeyboard\LIB\libCH57xBLE.a(ll.o)
 .data          0x0000000000000000        0x0 C:\Users\19156\Desktop\DualModeKeyboard\LIB\libCH57xBLE.a(ll.o)
 .bss           0x0000000000000000        0x0 C:\Users\19156\Desktop\DualModeKeyboard\LIB\libCH57xBLE.a(ll.o)
 .text          0x0000000000000000        0x0 C:\Users\19156\Desktop\DualModeKeyboard\LIB\libCH57xBLE.a(ll_advertise.o)
 .data          0x0000000000000000        0x0 C:\Users\19156\Desktop\DualModeKeyboard\LIB\libCH57xBLE.a(ll_advertise.o)
 .bss           0x0000000000000000        0x0 C:\Users\19156\Desktop\DualModeKeyboard\LIB\libCH57xBLE.a(ll_advertise.o)
 .text.LL_AdvertiseShut
                0x0000000000000000       0x2c C:\Users\19156\Desktop\DualModeKeyboard\LIB\libCH57xBLE.a(ll_advertise.o)
 .text.LL_AdvertiseEventRegister
                0x0000000000000000        0xa C:\Users\19156\Desktop\DualModeKeyboard\LIB\libCH57xBLE.a(ll_advertise.o)
 .text          0x0000000000000000        0x0 C:\Users\19156\Desktop\DualModeKeyboard\LIB\libCH57xBLE.a(ll_initiate.o)
 .data          0x0000000000000000        0x0 C:\Users\19156\Desktop\DualModeKeyboard\LIB\libCH57xBLE.a(ll_initiate.o)
 .bss           0x0000000000000000        0x0 C:\Users\19156\Desktop\DualModeKeyboard\LIB\libCH57xBLE.a(ll_initiate.o)
 .text.llInitiateStart
                0x0000000000000000       0x86 C:\Users\19156\Desktop\DualModeKeyboard\LIB\libCH57xBLE.a(ll_initiate.o)
 .text.llInitiateTraverseaChannel
                0x0000000000000000       0xea C:\Users\19156\Desktop\DualModeKeyboard\LIB\libCH57xBLE.a(ll_initiate.o)
 .text.llInitiateSet
                0x0000000000000000      0x188 C:\Users\19156\Desktop\DualModeKeyboard\LIB\libCH57xBLE.a(ll_initiate.o)
 .text.llInitiateCreateCore
                0x0000000000000000       0x72 C:\Users\19156\Desktop\DualModeKeyboard\LIB\libCH57xBLE.a(ll_initiate.o)
 .text.ll_initiate_filter
                0x0000000000000000      0x192 C:\Users\19156\Desktop\DualModeKeyboard\LIB\libCH57xBLE.a(ll_initiate.o)
 .text.ll_initiate_process
                0x0000000000000000      0x518 C:\Users\19156\Desktop\DualModeKeyboard\LIB\libCH57xBLE.a(ll_initiate.o)
 .text.LL_InitiateShut
                0x0000000000000000       0xa6 C:\Users\19156\Desktop\DualModeKeyboard\LIB\libCH57xBLE.a(ll_initiate.o)
 .text.LL_InitiateEnable
                0x0000000000000000       0x22 C:\Users\19156\Desktop\DualModeKeyboard\LIB\libCH57xBLE.a(ll_initiate.o)
 .text          0x0000000000000000        0x0 C:\Users\19156\Desktop\DualModeKeyboard\LIB\libCH57xBLE.a(ll_resolvinglist.o)
 .data          0x0000000000000000        0x0 C:\Users\19156\Desktop\DualModeKeyboard\LIB\libCH57xBLE.a(ll_resolvinglist.o)
 .bss           0x0000000000000000        0x0 C:\Users\19156\Desktop\DualModeKeyboard\LIB\libCH57xBLE.a(ll_resolvinglist.o)
 .text.LL_ResolvinglistRemove
                0x0000000000000000       0xae C:\Users\19156\Desktop\DualModeKeyboard\LIB\libCH57xBLE.a(ll_resolvinglist.o)
 .text.LL_ResolvinglistLocalRpaAddressGetIrk
                0x0000000000000000       0x40 C:\Users\19156\Desktop\DualModeKeyboard\LIB\libCH57xBLE.a(ll_resolvinglist.o)
 .text.LL_ResolvinglistCheckPeerResolution
                0x0000000000000000       0x62 C:\Users\19156\Desktop\DualModeKeyboard\LIB\libCH57xBLE.a(ll_resolvinglist.o)
 .text.LL_ResolvinglistCheckLocalResolution
                0x0000000000000000       0x62 C:\Users\19156\Desktop\DualModeKeyboard\LIB\libCH57xBLE.a(ll_resolvinglist.o)
 .text          0x0000000000000000        0x0 C:\Users\19156\Desktop\DualModeKeyboard\LIB\libCH57xBLE.a(broadcaster.o)
 .data          0x0000000000000000        0x0 C:\Users\19156\Desktop\DualModeKeyboard\LIB\libCH57xBLE.a(broadcaster.o)
 .bss           0x0000000000000000        0x0 C:\Users\19156\Desktop\DualModeKeyboard\LIB\libCH57xBLE.a(broadcaster.o)
 .text.GAPRole_BroadcasterProcessEvent
                0x0000000000000000      0x1e6 C:\Users\19156\Desktop\DualModeKeyboard\LIB\libCH57xBLE.a(broadcaster.o)
 .text.GAPRole_BroadcasterStartDevice
                0x0000000000000000       0x46 C:\Users\19156\Desktop\DualModeKeyboard\LIB\libCH57xBLE.a(broadcaster.o)
 .text.GAPRole_BroadcasterSetCB
                0x0000000000000000        0xa C:\Users\19156\Desktop\DualModeKeyboard\LIB\libCH57xBLE.a(broadcaster.o)
 .text.GAPRole_BroadcasterEnable
                0x0000000000000000       0x86 C:\Users\19156\Desktop\DualModeKeyboard\LIB\libCH57xBLE.a(broadcaster.o)
 .text          0x0000000000000000        0x0 C:\Users\19156\Desktop\DualModeKeyboard\LIB\libCH57xBLE.a(central.o)
 .data          0x0000000000000000        0x0 C:\Users\19156\Desktop\DualModeKeyboard\LIB\libCH57xBLE.a(central.o)
 .bss           0x0000000000000000        0x0 C:\Users\19156\Desktop\DualModeKeyboard\LIB\libCH57xBLE.a(central.o)
 .text.GAPRole_CentralProcessEvent
                0x0000000000000000      0x1d4 C:\Users\19156\Desktop\DualModeKeyboard\LIB\libCH57xBLE.a(central.o)
 .text.GAPRole_CentralStartDevice
                0x0000000000000000       0x76 C:\Users\19156\Desktop\DualModeKeyboard\LIB\libCH57xBLE.a(central.o)
 .text.GAPRole_CentralEstablishLink
                0x0000000000000000       0x3e C:\Users\19156\Desktop\DualModeKeyboard\LIB\libCH57xBLE.a(central.o)
 .text.GAPRole_UpdateLink
                0x0000000000000000        0xc C:\Users\19156\Desktop\DualModeKeyboard\LIB\libCH57xBLE.a(central.o)
 .text.GAPRole_CentralStartDiscovery
                0x0000000000000000       0x30 C:\Users\19156\Desktop\DualModeKeyboard\LIB\libCH57xBLE.a(central.o)
 .text.GAPRole_CentralCancelDiscovery
                0x0000000000000000       0x10 C:\Users\19156\Desktop\DualModeKeyboard\LIB\libCH57xBLE.a(central.o)
 .text.GAPRole_CentralEnable
                0x0000000000000000       0xac C:\Users\19156\Desktop\DualModeKeyboard\LIB\libCH57xBLE.a(central.o)
 .sbss.gapCentralRoleTaskId
                0x0000000000000000        0x1 C:\Users\19156\Desktop\DualModeKeyboard\LIB\libCH57xBLE.a(central.o)
 .sbss.pGapCentralRoleCB
                0x0000000000000000        0x4 C:\Users\19156\Desktop\DualModeKeyboard\LIB\libCH57xBLE.a(central.o)
 .comment       0x0000000000000000       0x34 C:\Users\19156\Desktop\DualModeKeyboard\LIB\libCH57xBLE.a(central.o)
 .text          0x0000000000000000        0x0 C:\Users\19156\Desktop\DualModeKeyboard\LIB\libCH57xBLE.a(observer.o)
 .data          0x0000000000000000        0x0 C:\Users\19156\Desktop\DualModeKeyboard\LIB\libCH57xBLE.a(observer.o)
 .bss           0x0000000000000000        0x0 C:\Users\19156\Desktop\DualModeKeyboard\LIB\libCH57xBLE.a(observer.o)
 .text.GAPRole_ObserverProcessEvent
                0x0000000000000000       0x86 C:\Users\19156\Desktop\DualModeKeyboard\LIB\libCH57xBLE.a(observer.o)
 .text.GAPRole_ObserverStartDevice
                0x0000000000000000       0x2a C:\Users\19156\Desktop\DualModeKeyboard\LIB\libCH57xBLE.a(observer.o)
 .text.GAPRole_ObserverStartDiscovery
                0x0000000000000000       0x30 C:\Users\19156\Desktop\DualModeKeyboard\LIB\libCH57xBLE.a(observer.o)
 .text.GAPRole_ObserverCancelDiscovery
                0x0000000000000000       0x10 C:\Users\19156\Desktop\DualModeKeyboard\LIB\libCH57xBLE.a(observer.o)
 .text.GAPRole_ObserverEnable
                0x0000000000000000       0x5a C:\Users\19156\Desktop\DualModeKeyboard\LIB\libCH57xBLE.a(observer.o)
 .sbss.pGapObserverRoleCB
                0x0000000000000000        0x4 C:\Users\19156\Desktop\DualModeKeyboard\LIB\libCH57xBLE.a(observer.o)
 .comment       0x0000000000000000       0x34 C:\Users\19156\Desktop\DualModeKeyboard\LIB\libCH57xBLE.a(observer.o)
 .text          0x0000000000000000        0x0 C:\Users\19156\Desktop\DualModeKeyboard\LIB\libCH57xBLE.a(ll_address.o)
 .data          0x0000000000000000        0x0 C:\Users\19156\Desktop\DualModeKeyboard\LIB\libCH57xBLE.a(ll_address.o)
 .bss           0x0000000000000000        0x0 C:\Users\19156\Desktop\DualModeKeyboard\LIB\libCH57xBLE.a(ll_address.o)
 .text.LL_AddrCreateOwnAddress
                0x0000000000000000        0x2 C:\Users\19156\Desktop\DualModeKeyboard\LIB\libCH57xBLE.a(ll_address.o)
 .text          0x0000000000000000        0x0 c:/mounriver/mounriver_studio/toolchain/risc-v embedded gcc/bin/../lib/gcc/riscv-none-embed/8.2.0/rv32imac/ilp32\libgcc.a(_lshrdi3.o)
 .data          0x0000000000000000        0x0 c:/mounriver/mounriver_studio/toolchain/risc-v embedded gcc/bin/../lib/gcc/riscv-none-embed/8.2.0/rv32imac/ilp32\libgcc.a(_lshrdi3.o)
 .bss           0x0000000000000000        0x0 c:/mounriver/mounriver_studio/toolchain/risc-v embedded gcc/bin/../lib/gcc/riscv-none-embed/8.2.0/rv32imac/ilp32\libgcc.a(_lshrdi3.o)
 .debug_frame   0x0000000000000000       0x20 c:/mounriver/mounriver_studio/toolchain/risc-v embedded gcc/bin/../lib/gcc/riscv-none-embed/8.2.0/rv32imac/ilp32\libgcc.a(_lshrdi3.o)
 .text          0x0000000000000000        0x0 c:/mounriver/mounriver_studio/toolchain/risc-v embedded gcc/bin/../lib/gcc/riscv-none-embed/8.2.0/rv32imac/ilp32\libgcc.a(_ashrdi3.o)
 .data          0x0000000000000000        0x0 c:/mounriver/mounriver_studio/toolchain/risc-v embedded gcc/bin/../lib/gcc/riscv-none-embed/8.2.0/rv32imac/ilp32\libgcc.a(_ashrdi3.o)
 .bss           0x0000000000000000        0x0 c:/mounriver/mounriver_studio/toolchain/risc-v embedded gcc/bin/../lib/gcc/riscv-none-embed/8.2.0/rv32imac/ilp32\libgcc.a(_ashrdi3.o)
 .text.__ashrdi3
                0x0000000000000000       0x2e c:/mounriver/mounriver_studio/toolchain/risc-v embedded gcc/bin/../lib/gcc/riscv-none-embed/8.2.0/rv32imac/ilp32\libgcc.a(_ashrdi3.o)
 .debug_frame   0x0000000000000000       0x20 c:/mounriver/mounriver_studio/toolchain/risc-v embedded gcc/bin/../lib/gcc/riscv-none-embed/8.2.0/rv32imac/ilp32\libgcc.a(_ashrdi3.o)
 .text          0x0000000000000000        0x0 c:/mounriver/mounriver_studio/toolchain/risc-v embedded gcc/bin/../lib/gcc/riscv-none-embed/8.2.0/rv32imac/ilp32\libgcc.a(_divdi3.o)
 .data          0x0000000000000000        0x0 c:/mounriver/mounriver_studio/toolchain/risc-v embedded gcc/bin/../lib/gcc/riscv-none-embed/8.2.0/rv32imac/ilp32\libgcc.a(_divdi3.o)
 .bss           0x0000000000000000        0x0 c:/mounriver/mounriver_studio/toolchain/risc-v embedded gcc/bin/../lib/gcc/riscv-none-embed/8.2.0/rv32imac/ilp32\libgcc.a(_divdi3.o)
 .text.__divdi3
                0x0000000000000000      0x3d8 c:/mounriver/mounriver_studio/toolchain/risc-v embedded gcc/bin/../lib/gcc/riscv-none-embed/8.2.0/rv32imac/ilp32\libgcc.a(_divdi3.o)
 .eh_frame      0x0000000000000000       0x28 c:/mounriver/mounriver_studio/toolchain/risc-v embedded gcc/bin/../lib/gcc/riscv-none-embed/8.2.0/rv32imac/ilp32\libgcc.a(_divdi3.o)
 .text          0x0000000000000000        0x0 c:/mounriver/mounriver_studio/toolchain/risc-v embedded gcc/bin/../lib/gcc/riscv-none-embed/8.2.0/rv32imac/ilp32\libgcc.a(_udivdi3.o)
 .data          0x0000000000000000        0x0 c:/mounriver/mounriver_studio/toolchain/risc-v embedded gcc/bin/../lib/gcc/riscv-none-embed/8.2.0/rv32imac/ilp32\libgcc.a(_udivdi3.o)
 .bss           0x0000000000000000        0x0 c:/mounriver/mounriver_studio/toolchain/risc-v embedded gcc/bin/../lib/gcc/riscv-none-embed/8.2.0/rv32imac/ilp32\libgcc.a(_udivdi3.o)
 .eh_frame      0x0000000000000000       0x28 c:/mounriver/mounriver_studio/toolchain/risc-v embedded gcc/bin/../lib/gcc/riscv-none-embed/8.2.0/rv32imac/ilp32\libgcc.a(_udivdi3.o)
 .text          0x0000000000000000        0x0 c:/mounriver/mounriver_studio/toolchain/risc-v embedded gcc/bin/../lib/gcc/riscv-none-embed/8.2.0/rv32imac/ilp32\libgcc.a(muldf3.o)
 .data          0x0000000000000000        0x0 c:/mounriver/mounriver_studio/toolchain/risc-v embedded gcc/bin/../lib/gcc/riscv-none-embed/8.2.0/rv32imac/ilp32\libgcc.a(muldf3.o)
 .bss           0x0000000000000000        0x0 c:/mounriver/mounriver_studio/toolchain/risc-v embedded gcc/bin/../lib/gcc/riscv-none-embed/8.2.0/rv32imac/ilp32\libgcc.a(muldf3.o)
 .debug_frame   0x0000000000000000       0x54 c:/mounriver/mounriver_studio/toolchain/risc-v embedded gcc/bin/../lib/gcc/riscv-none-embed/8.2.0/rv32imac/ilp32\libgcc.a(muldf3.o)
 .text          0x0000000000000000        0x0 c:/mounriver/mounriver_studio/toolchain/risc-v embedded gcc/bin/../lib/gcc/riscv-none-embed/8.2.0/rv32imac/ilp32\libgcc.a(floatsidf.o)
 .data          0x0000000000000000        0x0 c:/mounriver/mounriver_studio/toolchain/risc-v embedded gcc/bin/../lib/gcc/riscv-none-embed/8.2.0/rv32imac/ilp32\libgcc.a(floatsidf.o)
 .bss           0x0000000000000000        0x0 c:/mounriver/mounriver_studio/toolchain/risc-v embedded gcc/bin/../lib/gcc/riscv-none-embed/8.2.0/rv32imac/ilp32\libgcc.a(floatsidf.o)
 .debug_frame   0x0000000000000000       0x38 c:/mounriver/mounriver_studio/toolchain/risc-v embedded gcc/bin/../lib/gcc/riscv-none-embed/8.2.0/rv32imac/ilp32\libgcc.a(floatsidf.o)
 .text          0x0000000000000000        0x0 c:/mounriver/mounriver_studio/toolchain/risc-v embedded gcc/bin/../lib/gcc/riscv-none-embed/8.2.0/rv32imac/ilp32\libgcc.a(mulsf3.o)
 .data          0x0000000000000000        0x0 c:/mounriver/mounriver_studio/toolchain/risc-v embedded gcc/bin/../lib/gcc/riscv-none-embed/8.2.0/rv32imac/ilp32\libgcc.a(mulsf3.o)
 .bss           0x0000000000000000        0x0 c:/mounriver/mounriver_studio/toolchain/risc-v embedded gcc/bin/../lib/gcc/riscv-none-embed/8.2.0/rv32imac/ilp32\libgcc.a(mulsf3.o)
 .debug_frame   0x0000000000000000       0x50 c:/mounriver/mounriver_studio/toolchain/risc-v embedded gcc/bin/../lib/gcc/riscv-none-embed/8.2.0/rv32imac/ilp32\libgcc.a(mulsf3.o)
 .text          0x0000000000000000        0x0 c:/mounriver/mounriver_studio/toolchain/risc-v embedded gcc/bin/../lib/gcc/riscv-none-embed/8.2.0/rv32imac/ilp32\libgcc.a(fixsfsi.o)
 .data          0x0000000000000000        0x0 c:/mounriver/mounriver_studio/toolchain/risc-v embedded gcc/bin/../lib/gcc/riscv-none-embed/8.2.0/rv32imac/ilp32\libgcc.a(fixsfsi.o)
 .bss           0x0000000000000000        0x0 c:/mounriver/mounriver_studio/toolchain/risc-v embedded gcc/bin/../lib/gcc/riscv-none-embed/8.2.0/rv32imac/ilp32\libgcc.a(fixsfsi.o)
 .debug_frame   0x0000000000000000       0x20 c:/mounriver/mounriver_studio/toolchain/risc-v embedded gcc/bin/../lib/gcc/riscv-none-embed/8.2.0/rv32imac/ilp32\libgcc.a(fixsfsi.o)
 .text          0x0000000000000000        0x0 c:/mounriver/mounriver_studio/toolchain/risc-v embedded gcc/bin/../lib/gcc/riscv-none-embed/8.2.0/rv32imac/ilp32\libgcc.a(floatsisf.o)
 .data          0x0000000000000000        0x0 c:/mounriver/mounriver_studio/toolchain/risc-v embedded gcc/bin/../lib/gcc/riscv-none-embed/8.2.0/rv32imac/ilp32\libgcc.a(floatsisf.o)
 .bss           0x0000000000000000        0x0 c:/mounriver/mounriver_studio/toolchain/risc-v embedded gcc/bin/../lib/gcc/riscv-none-embed/8.2.0/rv32imac/ilp32\libgcc.a(floatsisf.o)
 .debug_frame   0x0000000000000000       0x38 c:/mounriver/mounriver_studio/toolchain/risc-v embedded gcc/bin/../lib/gcc/riscv-none-embed/8.2.0/rv32imac/ilp32\libgcc.a(floatsisf.o)
 .text          0x0000000000000000        0x0 c:/mounriver/mounriver_studio/toolchain/risc-v embedded gcc/bin/../lib/gcc/riscv-none-embed/8.2.0/rv32imac/ilp32\libgcc.a(truncdfsf2.o)
 .data          0x0000000000000000        0x0 c:/mounriver/mounriver_studio/toolchain/risc-v embedded gcc/bin/../lib/gcc/riscv-none-embed/8.2.0/rv32imac/ilp32\libgcc.a(truncdfsf2.o)
 .bss           0x0000000000000000        0x0 c:/mounriver/mounriver_studio/toolchain/risc-v embedded gcc/bin/../lib/gcc/riscv-none-embed/8.2.0/rv32imac/ilp32\libgcc.a(truncdfsf2.o)
 .debug_frame   0x0000000000000000       0x20 c:/mounriver/mounriver_studio/toolchain/risc-v embedded gcc/bin/../lib/gcc/riscv-none-embed/8.2.0/rv32imac/ilp32\libgcc.a(truncdfsf2.o)
 .text          0x0000000000000000        0x0 c:/mounriver/mounriver_studio/toolchain/risc-v embedded gcc/bin/../lib/gcc/riscv-none-embed/8.2.0/rv32imac/ilp32\libgcc.a(_clz.o)
 .data          0x0000000000000000        0x0 c:/mounriver/mounriver_studio/toolchain/risc-v embedded gcc/bin/../lib/gcc/riscv-none-embed/8.2.0/rv32imac/ilp32\libgcc.a(_clz.o)
 .bss           0x0000000000000000        0x0 c:/mounriver/mounriver_studio/toolchain/risc-v embedded gcc/bin/../lib/gcc/riscv-none-embed/8.2.0/rv32imac/ilp32\libgcc.a(_clz.o)
 .text          0x0000000000000000        0x0 c:/mounriver/mounriver_studio/toolchain/risc-v embedded gcc/bin/../lib/gcc/riscv-none-embed/8.2.0/rv32imac/ilp32\libgcc.a(_clzsi2.o)
 .data          0x0000000000000000        0x0 c:/mounriver/mounriver_studio/toolchain/risc-v embedded gcc/bin/../lib/gcc/riscv-none-embed/8.2.0/rv32imac/ilp32\libgcc.a(_clzsi2.o)
 .bss           0x0000000000000000        0x0 c:/mounriver/mounriver_studio/toolchain/risc-v embedded gcc/bin/../lib/gcc/riscv-none-embed/8.2.0/rv32imac/ilp32\libgcc.a(_clzsi2.o)
 .debug_frame   0x0000000000000000       0x20 c:/mounriver/mounriver_studio/toolchain/risc-v embedded gcc/bin/../lib/gcc/riscv-none-embed/8.2.0/rv32imac/ilp32\libgcc.a(_clzsi2.o)
 .text          0x0000000000000000        0x0 c:/mounriver/mounriver_studio/toolchain/risc-v embedded gcc/bin/../lib/gcc/riscv-none-embed/8.2.0/../../../../riscv-none-embed/lib/rv32imac/ilp32\libg_nano.a(lib_a-memcpy.o)
 .data          0x0000000000000000        0x0 c:/mounriver/mounriver_studio/toolchain/risc-v embedded gcc/bin/../lib/gcc/riscv-none-embed/8.2.0/../../../../riscv-none-embed/lib/rv32imac/ilp32\libg_nano.a(lib_a-memcpy.o)
 .bss           0x0000000000000000        0x0 c:/mounriver/mounriver_studio/toolchain/risc-v embedded gcc/bin/../lib/gcc/riscv-none-embed/8.2.0/../../../../riscv-none-embed/lib/rv32imac/ilp32\libg_nano.a(lib_a-memcpy.o)
 .debug_frame   0x0000000000000000       0x20 c:/mounriver/mounriver_studio/toolchain/risc-v embedded gcc/bin/../lib/gcc/riscv-none-embed/8.2.0/../../../../riscv-none-embed/lib/rv32imac/ilp32\libg_nano.a(lib_a-memcpy.o)

Memory Configuration

Name             Origin             Length             Attributes
FLASH            0x0000000000000000 0x0000000000070000 xr
RAM              0x0000000020003800 0x0000000000004800 xrw
*default*        0x0000000000000000 0xffffffffffffffff

Linker script and memory map

LOAD ./StdPeriphDriver/CH57x_adc.o
LOAD ./StdPeriphDriver/CH57x_clk.o
LOAD ./StdPeriphDriver/CH57x_flash.o
LOAD ./StdPeriphDriver/CH57x_gpio.o
LOAD ./StdPeriphDriver/CH57x_pwr.o
LOAD ./StdPeriphDriver/CH57x_sys.o
LOAD ./StdPeriphDriver/CH57x_uart1.o
LOAD ./StdPeriphDriver/CH57x_usbdev.o
LOAD ./Startup/startup_CH573.o
LOAD ./RVMSIS/core_riscv.o
LOAD ./Profile/battservice.o
LOAD ./Profile/devinfoservice.o
LOAD ./Profile/hiddev.o
LOAD ./Profile/hidkbdservice.o
LOAD ./Profile/scanparamservice.o
LOAD ./HAL/MCU.o
LOAD ./HAL/RTC.o
LOAD ./HAL/SLEEP.o
LOAD ./APP/MAIN.o
LOAD ./APP/app_ble.o
LOAD ./APP/app_usb.o
LOAD ./APP/keyin.o
LOAD ./APP/led.o
LOAD ./APP/protocol.o
LOAD ./APP/usercfg.o
LOAD C:\Users\19156\Desktop\SRC\StdPeriphDriver\libISP573.a
LOAD C:\Users\19156\Desktop\DualModeKeyboard\LIB\libCH57xBLE.a
LOAD c:/mounriver/mounriver_studio/toolchain/risc-v embedded gcc/bin/../lib/gcc/riscv-none-embed/8.2.0/rv32imac/ilp32\libgcc.a
LOAD c:/mounriver/mounriver_studio/toolchain/risc-v embedded gcc/bin/../lib/gcc/riscv-none-embed/8.2.0/../../../../riscv-none-embed/lib/rv32imac/ilp32\libg_nano.a
LOAD c:/mounriver/mounriver_studio/toolchain/risc-v embedded gcc/bin/../lib/gcc/riscv-none-embed/8.2.0/../../../../riscv-none-embed/lib/rv32imac/ilp32\libc_nano.a
LOAD c:/mounriver/mounriver_studio/toolchain/risc-v embedded gcc/bin/../lib/gcc/riscv-none-embed/8.2.0/rv32imac/ilp32\libgcc.a
START GROUP
LOAD c:/mounriver/mounriver_studio/toolchain/risc-v embedded gcc/bin/../lib/gcc/riscv-none-embed/8.2.0/rv32imac/ilp32\libgcc.a
LOAD c:/mounriver/mounriver_studio/toolchain/risc-v embedded gcc/bin/../lib/gcc/riscv-none-embed/8.2.0/../../../../riscv-none-embed/lib/rv32imac/ilp32\libc_nano.a
LOAD c:/mounriver/mounriver_studio/toolchain/risc-v embedded gcc/bin/../lib/gcc/riscv-none-embed/8.2.0/../../../../riscv-none-embed/lib/rv32imac/ilp32\libnosys.a
END GROUP
START GROUP
LOAD c:/mounriver/mounriver_studio/toolchain/risc-v embedded gcc/bin/../lib/gcc/riscv-none-embed/8.2.0/rv32imac/ilp32\libgcc.a
LOAD c:/mounriver/mounriver_studio/toolchain/risc-v embedded gcc/bin/../lib/gcc/riscv-none-embed/8.2.0/../../../../riscv-none-embed/lib/rv32imac/ilp32\libc_nano.a
LOAD c:/mounriver/mounriver_studio/toolchain/risc-v embedded gcc/bin/../lib/gcc/riscv-none-embed/8.2.0/../../../../riscv-none-embed/lib/rv32imac/ilp32\libnosys.a
END GROUP

.init           0x0000000000000000        0x4
                0x0000000000000000                _sinit = .
                0x0000000000000000                . = ALIGN (0x4)
 *(SORT_NONE(.init))
 .init          0x0000000000000000        0x4 ./Startup/startup_CH573.o
                0x0000000000000000                _start
                0x0000000000000004                . = ALIGN (0x4)
                0x0000000000000004                _einit = .

.highcodelalign
                0x0000000000000004        0x0
                0x0000000000000004                . = ALIGN (0x4)
                0x0000000000000004                PROVIDE (_highcode_lma = .)

.highcode       0x0000000020003800     0x11c8 load address 0x0000000000000004
                0x0000000020003800                . = ALIGN (0x4)
                0x0000000020003800                PROVIDE (_highcode_vma_start = .)
 *(.vector)
 .vector        0x0000000020003800       0x90 ./Startup/startup_CH573.o
 *(SORT_NONE(.vector_handler))
 .vector_handler
                0x0000000020003890       0x2c ./Startup/startup_CH573.o
                0x0000000020003890                NMI_Handler
                0x0000000020003894                SysTick_Handler
                0x0000000020003896                SW_Handler
                0x0000000020003898                TMR0_IRQHandler
                0x000000002000389a                GPIOA_IRQHandler
                0x000000002000389c                GPIOB_IRQHandler
                0x000000002000389e                SPI0_IRQHandler
                0x00000000200038a0                BB_IRQHandler
                0x00000000200038a2                LLE_IRQHandler
                0x00000000200038a6                TMR1_IRQHandler
                0x00000000200038a8                TMR2_IRQHandler
                0x00000000200038aa                UART0_IRQHandler
                0x00000000200038ac                UART1_IRQHandler
                0x00000000200038b0                ADC_IRQHandler
                0x00000000200038b2                PWMX_IRQHandler
                0x00000000200038b4                TMR3_IRQHandler
                0x00000000200038b6                UART2_IRQHandler
                0x00000000200038b8                UART3_IRQHandler
                0x00000000200038ba                WDOG_BAT_IRQHandler
 *(.highcode)
 .highcode      0x00000000200038bc       0x4a ./StdPeriphDriver/CH57x_clk.o
                0x00000000200038bc                Get_Calibration_Cnt_RAM
 .highcode      0x0000000020003906      0x1a8 ./StdPeriphDriver/CH57x_sys.o
                0x0000000020003906                SetSysClock
                0x0000000020003a02                SYS_ResetExecute
                0x0000000020003a3a                HardFault_Handler
                0x0000000020003a78                mDelayuS
                0x0000000020003a86                mDelaymS
 .highcode      0x0000000020003aae       0x16 ./HAL/RTC.o
                0x0000000020003aae                RTC_IRQHandler
 .highcode      0x0000000020003ac4        0x8 ./APP/MAIN.o
                0x0000000020003ac4                Main_Circulation
 .highcode      0x0000000020003acc        0xc ./APP/app_usb.o
                0x0000000020003acc                USB_IRQHandler
 .highcode      0x0000000020003ad8      0x3ee C:\Users\19156\Desktop\SRC\StdPeriphDriver\libISP573.a(ISP573.o)
                0x0000000020003ad8                FLASH_ROM_BEG
                0x0000000020003aea                FLASH_ROM_END
                0x0000000020003af8                FLASH_ROM_IN
                0x0000000020003b06                FLASH_ROM_OUT
                0x0000000020003b14                FLASH_ROM_ADDR
                0x0000000020003b5c                FLASH_ROM_WAIT
                0x0000000020003b94                FLASH_EEPROM_CMD
 .highcode      0x0000000020003ec6      0x230 C:\Users\19156\Desktop\DualModeKeyboard\LIB\libCH57xBLE.a(tmos.o)
                0x0000000020003ee2                tmos_memcpy
                0x0000000020003f02                tmos_memcpy_word
                0x0000000020003f1e                TMOS_SystemProcess
 .highcode      0x00000000200040f6       0xc2 C:\Users\19156\Desktop\DualModeKeyboard\LIB\libCH57xBLE.a(tmos_hw.o)
                0x00000000200040f6                BLE_GetHSEClock
                0x0000000020004134                RTC_Get32KClock
                0x000000002000414c                SYS_GetTickCount
 .highcode      0x00000000200041b8      0x128 C:\Users\19156\Desktop\DualModeKeyboard\LIB\libCH57xBLE.a(ll_connect.o)
                0x00000000200041b8                ll_connect_process_data
                0x0000000020004206                ll_connect_event_continue
 .highcode      0x00000000200042e0      0x1c4 C:\Users\19156\Desktop\DualModeKeyboard\LIB\libCH57xBLE.a(bb.o)
                0x00000000200042e0                BB_IRQLibHandler
                0x000000002000445a                BB_IRQLibFunction
 .highcode      0x00000000200044a4      0x198 C:\Users\19156\Desktop\DualModeKeyboard\LIB\libCH57xBLE.a(ip.o)
                0x00000000200044a4                ll_tx_wait_finish
                0x00000000200044d0                ll_tx_wait_tx_dma
                0x000000002000452e                ll_rx_wait_finish
                0x0000000020004564                ll_rx_wait_tx_dma
                0x00000000200045b2                ble_ll_chkcrc
 .highcode      0x000000002000463c      0x1a4 C:\Users\19156\Desktop\DualModeKeyboard\LIB\libCH57xBLE.a(lle.o)
                0x000000002000463c                LLE_IRQLibHandler
                0x0000000020004796                LLE_IRQLibFunction
 .highcode      0x00000000200047e0       0x82 C:\Users\19156\Desktop\DualModeKeyboard\LIB\libCH57xBLE.a(rf_fh.o)
                0x00000000200047e0                RF_HopGetChannel
 .highcode      0x0000000020004862       0x2c C:\Users\19156\Desktop\DualModeKeyboard\LIB\libCH57xBLE.a(rfend.o)
                0x0000000020004862                RFEND_WaitTune
 .highcode      0x000000002000488e      0x13a C:\Users\19156\Desktop\DualModeKeyboard\LIB\libCH57xBLE.a(memory.o)
                0x000000002000488e                tmos_memory_allocate
                0x0000000020004928                tmos_memory_free
 *(.highcode.*)
                0x00000000200049c8                . = ALIGN (0x4)
 *fill*         0x00000000200049c8        0x0 
                0x00000000200049c8                PROVIDE (_highcode_vma_end = .)

.text           0x00000000000011d0    0x1d1e4
                0x00000000000011d0                . = ALIGN (0x4)
 *(SORT_NONE(.handle_reset))
 .handle_reset  0x00000000000011d0       0xa2 ./Startup/startup_CH573.o
                0x00000000000011d0                handle_reset
 *(.text)
 *(.text.*)
 .text.ADC_InterTSSampInit
                0x0000000000001272       0x28 ./StdPeriphDriver/CH57x_adc.o
                0x0000000000001272                ADC_InterTSSampInit
 .text.Calibration_LSI_FLASH
                0x000000000000129a      0x284 ./StdPeriphDriver/CH57x_clk.o
                0x000000000000129a                Calibration_LSI_FLASH
 .text.Calibration_LSI_RAM
                0x000000000000151e      0x23e ./StdPeriphDriver/CH57x_clk.o
                0x000000000000151e                Calibration_LSI_RAM
 .text.RTC_InitTime
                0x000000000000175c      0x134 ./StdPeriphDriver/CH57x_clk.o
                0x000000000000175c                RTC_InitTime
 .text.GPIOA_ModeCfg
                0x0000000000001890       0xa6 ./StdPeriphDriver/CH57x_gpio.o
                0x0000000000001890                GPIOA_ModeCfg
 .text.GPIOB_ModeCfg
                0x0000000000001936       0xa6 ./StdPeriphDriver/CH57x_gpio.o
                0x0000000000001936                GPIOB_ModeCfg
 .text.SYS_GetSysTickCnt
                0x00000000000019dc        0xa ./StdPeriphDriver/CH57x_sys.o
                0x00000000000019dc                SYS_GetSysTickCnt
 .text.USB_DeviceInit
                0x00000000000019e6       0x7e ./StdPeriphDriver/CH57x_usbdev.o
                0x00000000000019e6                USB_DeviceInit
 .text.DevEP1_IN_Deal
                0x0000000000001a64       0x16 ./StdPeriphDriver/CH57x_usbdev.o
                0x0000000000001a64                DevEP1_IN_Deal
 .text.DevEP2_IN_Deal
                0x0000000000001a7a       0x16 ./StdPeriphDriver/CH57x_usbdev.o
                0x0000000000001a7a                DevEP2_IN_Deal
 .text.DevEP3_IN_Deal
                0x0000000000001a90       0x16 ./StdPeriphDriver/CH57x_usbdev.o
                0x0000000000001a90                DevEP3_IN_Deal
 .text.battMeasure
                0x0000000000001aa6       0x7c ./Profile/battservice.o
 .text.battWriteAttrCB
                0x0000000000001b22       0x5e ./Profile/battservice.o
 .text.battReadAttrCB
                0x0000000000001b80       0x7e ./Profile/battservice.o
 .text.battNotifyCB
                0x0000000000001bfe       0x76 ./Profile/battservice.o
 .text.Batt_AddService
                0x0000000000001c74       0x2c ./Profile/battservice.o
                0x0000000000001c74                Batt_AddService
 .text.Batt_Register
                0x0000000000001ca0        0x6 ./Profile/battservice.o
                0x0000000000001ca0                Batt_Register
 .text.Batt_SetParameter
                0x0000000000001ca6       0x3a ./Profile/battservice.o
                0x0000000000001ca6                Batt_SetParameter
 .text.Batt_GetParameter
                0x0000000000001ce0       0x6a ./Profile/battservice.o
                0x0000000000001ce0                Batt_GetParameter
 .text.Batt_MeasLevel
                0x0000000000001d4a       0x2e ./Profile/battservice.o
                0x0000000000001d4a                Batt_MeasLevel
 .text.Batt_HandleConnStatusCB
                0x0000000000001d78       0x3e ./Profile/battservice.o
                0x0000000000001d78                Batt_HandleConnStatusCB
 .text.devInfo_ReadAttrCB
                0x0000000000001db6      0x196 ./Profile/devinfoservice.o
 .text.DevInfo_AddService
                0x0000000000001f4c       0x18 ./Profile/devinfoservice.o
                0x0000000000001f4c                DevInfo_AddService
 .text.hidDevParamUpdateCB
                0x0000000000001f64        0x2 ./Profile/hiddev.o
 .text.hidDevScanParamCB
                0x0000000000001f66        0x2 ./Profile/hiddev.o
 .text.hidDevRptByHandle
                0x0000000000001f68       0x30 ./Profile/hiddev.o
 .text.hidDevBattCB
                0x0000000000001f98       0x28 ./Profile/hiddev.o
 .text.hidDevPairStateCB
                0x0000000000001fc0       0x28 ./Profile/hiddev.o
 .text.hidDevPasscodeCB
                0x0000000000001fe8       0x34 ./Profile/hiddev.o
 .text.HidDev_ProcessEvent
                0x000000000000201c       0x6c ./Profile/hiddev.o
                0x000000000000201c                HidDev_ProcessEvent
 .text.hidDevGapStateCB
                0x0000000000002088      0x17c ./Profile/hiddev.o
 .text.HidDev_Init
                0x0000000000002204       0x66 ./Profile/hiddev.o
                0x0000000000002204                HidDev_Init
 .text.HidDev_Register
                0x000000000000226a        0xa ./Profile/hiddev.o
                0x000000000000226a                HidDev_Register
 .text.HidDev_RegisterReports
                0x0000000000002274        0xa ./Profile/hiddev.o
                0x0000000000002274                HidDev_RegisterReports
 .text.HidDev_Report
                0x000000000000227e       0xda ./Profile/hiddev.o
                0x000000000000227e                HidDev_Report
 .text.HidDev_Start
                0x0000000000002358       0x1e ./Profile/hiddev.o
                0x0000000000002358                HidDev_Start
 .text.HidDev_Close
                0x0000000000002376       0x30 ./Profile/hiddev.o
                0x0000000000002376                HidDev_Close
 .text.HidDev_ReadAttrCB
                0x00000000000023a6      0x104 ./Profile/hiddev.o
                0x00000000000023a6                HidDev_ReadAttrCB
 .text.HidDev_WriteAttrCB
                0x00000000000024aa      0x146 ./Profile/hiddev.o
                0x00000000000024aa                HidDev_WriteAttrCB
 .text.Hid_AddService
                0x00000000000025f0      0x134 ./Profile/hidkbdservice.o
                0x00000000000025f0                Hid_AddService
 .text.Hid_SetParameter
                0x0000000000002724       0x5a ./Profile/hidkbdservice.o
                0x0000000000002724                Hid_SetParameter
 .text.Hid_GetParameter
                0x000000000000277e       0x42 ./Profile/hidkbdservice.o
                0x000000000000277e                Hid_GetParameter
 .text.scanParamReadAttrCB
                0x00000000000027c0        0x4 ./Profile/scanparamservice.o
 .text.scanParamWriteAttrCB
                0x00000000000027c4       0x66 ./Profile/scanparamservice.o
 .text.ScanParam_AddService
                0x000000000000282a       0x2c ./Profile/scanparamservice.o
                0x000000000000282a                ScanParam_AddService
 .text.ScanParam_Register
                0x0000000000002856        0x6 ./Profile/scanparamservice.o
                0x0000000000002856                ScanParam_Register
 .text.ScanParam_RefreshNotify
                0x000000000000285c       0x5c ./Profile/scanparamservice.o
                0x000000000000285c                ScanParam_RefreshNotify
 .text.ScanParam_HandleConnStatusCB
                0x00000000000028b8       0x3e ./Profile/scanparamservice.o
                0x00000000000028b8                ScanParam_HandleConnStatusCB
 .text.Lib_Calibration_LSI
                0x00000000000028f6       0x30 ./HAL/MCU.o
                0x00000000000028f6                Lib_Calibration_LSI
 .text.Lib_Read_Flash
                0x0000000000002926       0x1c ./HAL/MCU.o
                0x0000000000002926                Lib_Read_Flash
 .text.Lib_Write_Flash
                0x0000000000002942       0x40 ./HAL/MCU.o
                0x0000000000002942                Lib_Write_Flash
 .text.HAL_GetInterTempValue
                0x0000000000002982       0x72 ./HAL/MCU.o
                0x0000000000002982                HAL_GetInterTempValue
 .text.HAL_ProcessEvent
                0x00000000000029f4       0x72 ./HAL/MCU.o
                0x00000000000029f4                HAL_ProcessEvent
 .text.CH57X_BLEInit
                0x0000000000002a66      0x112 ./HAL/MCU.o
                0x0000000000002a66                CH57X_BLEInit
 .text.HAL_Init
                0x0000000000002b78       0x34 ./HAL/MCU.o
                0x0000000000002b78                HAL_Init
 .text.HAL_TimeInit
                0x0000000000002bac       0x5e ./HAL/RTC.o
                0x0000000000002bac                HAL_TimeInit
 .text.startup.main
                0x0000000000002c0a       0x80 ./APP/MAIN.o
                0x0000000000002c0a                main
 .text.hidEmuEvtCB
                0x0000000000002c8a        0x2 ./APP/app_ble.o
 .text.hidEmuStateCB
                0x0000000000002c8c       0x44 ./APP/app_ble.o
 .text.hidEmuRptCB
                0x0000000000002cd0       0x44 ./APP/app_ble.o
 .text.HidEmu_ProcessEvent
                0x0000000000002d14       0x66 ./APP/app_ble.o
                0x0000000000002d14                HidEmu_ProcessEvent
 .text.HidEmu_Init
                0x0000000000002d7a      0x10c ./APP/app_ble.o
                0x0000000000002d7a                HidEmu_Init
 .text.hidEmuSendReport
                0x0000000000002e86       0x50 ./APP/app_ble.o
                0x0000000000002e86                hidEmuSendReport
 .text.USB_Init
                0x0000000000002ed6       0x4a ./APP/app_usb.o
                0x0000000000002ed6                USB_Init
 .text.DevEP1_OUT_Deal
                0x0000000000002f20       0x26 ./APP/app_usb.o
                0x0000000000002f20                DevEP1_OUT_Deal
 .text.DevEP2_OUT_Deal
                0x0000000000002f46       0x26 ./APP/app_usb.o
                0x0000000000002f46                DevEP2_OUT_Deal
 .text.DevEP4_OUT_Deal
                0x0000000000002f6c       0xca ./APP/app_usb.o
                0x0000000000002f6c                DevEP4_OUT_Deal
 .text.USB_DevTransProcess
                0x0000000000003036      0x760 ./APP/app_usb.o
                0x0000000000003036                USB_DevTransProcess
 .text.TMOS_Keys_Debounce
                0x0000000000003796      0x228 ./APP/keyin.o
 .text.TMOS_Enco_Debounce
                0x00000000000039be       0xc0 ./APP/keyin.o
 .text.TMOS_Keys_TaskManager
                0x0000000000003a7e      0x154 ./APP/keyin.o
 .text.TMOS_Keys_TransMacro
                0x0000000000003bd2      0xaac ./APP/keyin.o
 .text.Keyin_Init
                0x000000000000467e       0xac ./APP/keyin.o
                0x000000000000467e                Keyin_Init
 .text.TMOSTASK_ProtoCtrl_UploadData
                0x000000000000472a       0x92 ./APP/protocol.o
 .text.TMOSTASK_ProtoCtrl_Fresh
                0x00000000000047bc       0x9a ./APP/protocol.o
 .text.ProtoCtrl_Init
                0x0000000000004856       0x7e ./APP/protocol.o
                0x0000000000004856                ProtoCtrl_Init
 .text.UserCfg_Init
                0x00000000000048d4       0x62 ./APP/usercfg.o
                0x00000000000048d4                UserCfg_Init
 .text.KeyCfg_JumpNext
                0x0000000000004936       0x6c ./APP/usercfg.o
                0x0000000000004936                KeyCfg_JumpNext
 .text.KeyCfg_Reset
                0x00000000000049a2       0x12 ./APP/usercfg.o
                0x00000000000049a2                KeyCfg_Reset
 .text.tmos_msg_enqueue
                0x00000000000049b4       0x1e C:\Users\19156\Desktop\DualModeKeyboard\LIB\libCH57xBLE.a(message.o)
                0x00000000000049b4                tmos_msg_enqueue
 .text.tmos_msg_deallocate
                0x00000000000049d2       0x2c C:\Users\19156\Desktop\DualModeKeyboard\LIB\libCH57xBLE.a(message.o)
                0x00000000000049d2                tmos_msg_deallocate
 .text.tmos_msg_allocate
                0x00000000000049fe       0x3e C:\Users\19156\Desktop\DualModeKeyboard\LIB\libCH57xBLE.a(message.o)
                0x00000000000049fe                tmos_msg_allocate
 .text.tmos_msg_receive
                0x0000000000004a3c       0x68 C:\Users\19156\Desktop\DualModeKeyboard\LIB\libCH57xBLE.a(message.o)
                0x0000000000004a3c                tmos_msg_receive
 .text.tmos_msg_send
                0x0000000000004aa4       0x56 C:\Users\19156\Desktop\DualModeKeyboard\LIB\libCH57xBLE.a(message.o)
                0x0000000000004aa4                tmos_msg_send
 .text.tmos_msg_init
                0x0000000000004afa        0x6 C:\Users\19156\Desktop\DualModeKeyboard\LIB\libCH57xBLE.a(message.o)
                0x0000000000004afa                tmos_msg_init
 .text.tmosFindTask
                0x0000000000004b00       0x20 C:\Users\19156\Desktop\DualModeKeyboard\LIB\libCH57xBLE.a(tmos.o)
 .text.TMOS_CbTimerProcessEvent
                0x0000000000004b20       0x7c C:\Users\19156\Desktop\DualModeKeyboard\LIB\libCH57xBLE.a(tmos.o)
                0x0000000000004b20                TMOS_CbTimerProcessEvent
 .text.tmos_rand
                0x0000000000004b9c       0x54 C:\Users\19156\Desktop\DualModeKeyboard\LIB\libCH57xBLE.a(tmos.o)
                0x0000000000004b9c                tmos_rand
 .text.tmos_query_sleep_time
                0x0000000000004bf0      0x178 C:\Users\19156\Desktop\DualModeKeyboard\LIB\libCH57xBLE.a(tmos.o)
                0x0000000000004bf0                tmos_query_sleep_time
 .text.tmos_memset
                0x0000000000004d68       0x12 C:\Users\19156\Desktop\DualModeKeyboard\LIB\libCH57xBLE.a(tmos.o)
                0x0000000000004d68                tmos_memset
 .text.tmos_strlen
                0x0000000000004d7a       0x14 C:\Users\19156\Desktop\DualModeKeyboard\LIB\libCH57xBLE.a(tmos.o)
                0x0000000000004d7a                tmos_strlen
 .text.tmos_memdup
                0x0000000000004d8e       0x3c C:\Users\19156\Desktop\DualModeKeyboard\LIB\libCH57xBLE.a(tmos.o)
                0x0000000000004d8e                tmos_memdup
 .text.tmos_memcmp
                0x0000000000004dca       0x24 C:\Users\19156\Desktop\DualModeKeyboard\LIB\libCH57xBLE.a(tmos.o)
                0x0000000000004dca                tmos_memcmp
 .text.tmos_revmemcpy
                0x0000000000004dee       0x1c C:\Users\19156\Desktop\DualModeKeyboard\LIB\libCH57xBLE.a(tmos.o)
                0x0000000000004dee                tmos_revmemcpy
 .text.tmos_isbufset
                0x0000000000004e0a       0x1e C:\Users\19156\Desktop\DualModeKeyboard\LIB\libCH57xBLE.a(tmos.o)
                0x0000000000004e0a                tmos_isbufset
 .text.tmos_set_event
                0x0000000000004e28       0x2a C:\Users\19156\Desktop\DualModeKeyboard\LIB\libCH57xBLE.a(tmos.o)
                0x0000000000004e28                tmos_set_event
 .text.tmos_query_system_time
                0x0000000000004e52       0xce C:\Users\19156\Desktop\DualModeKeyboard\LIB\libCH57xBLE.a(tmos.o)
                0x0000000000004e52                tmos_query_system_time
 .text.tmos_clear_event
                0x0000000000004f20       0x2e C:\Users\19156\Desktop\DualModeKeyboard\LIB\libCH57xBLE.a(tmos.o)
                0x0000000000004f20                tmos_clear_event
 .text.tmos_start_task
                0x0000000000004f4e       0x90 C:\Users\19156\Desktop\DualModeKeyboard\LIB\libCH57xBLE.a(tmos.o)
                0x0000000000004f4e                tmos_start_task
 .text.tmos_start_callback_task
                0x0000000000004fde       0xac C:\Users\19156\Desktop\DualModeKeyboard\LIB\libCH57xBLE.a(tmos.o)
                0x0000000000004fde                tmos_start_callback_task
 .text.tmos_start_reload_task
                0x000000000000508a       0x30 C:\Users\19156\Desktop\DualModeKeyboard\LIB\libCH57xBLE.a(tmos.o)
                0x000000000000508a                tmos_start_reload_task
 .text.tmos_stop_task
                0x00000000000050ba       0x42 C:\Users\19156\Desktop\DualModeKeyboard\LIB\libCH57xBLE.a(tmos.o)
                0x00000000000050ba                tmos_stop_task
 .text.tmos_stop_callback_task
                0x00000000000050fc       0x5c C:\Users\19156\Desktop\DualModeKeyboard\LIB\libCH57xBLE.a(tmos.o)
                0x00000000000050fc                tmos_stop_callback_task
 .text.tmos_get_task_timer
                0x0000000000005158       0x16 C:\Users\19156\Desktop\DualModeKeyboard\LIB\libCH57xBLE.a(tmos.o)
                0x0000000000005158                tmos_get_task_timer
 .text.tmos_update_callback_timer
                0x000000000000516e       0x62 C:\Users\19156\Desktop\DualModeKeyboard\LIB\libCH57xBLE.a(tmos.o)
                0x000000000000516e                tmos_update_callback_timer
 .text.TMOS_Set32KTuneValue
                0x00000000000051d0        0xa C:\Users\19156\Desktop\DualModeKeyboard\LIB\libCH57xBLE.a(tmos.o)
                0x00000000000051d0                TMOS_Set32KTuneValue
 .text.TMOS_TimerRegister
                0x00000000000051da       0x1a C:\Users\19156\Desktop\DualModeKeyboard\LIB\libCH57xBLE.a(tmos.o)
                0x00000000000051da                TMOS_TimerRegister
 .text.TMOS_ProcessRegister
                0x00000000000051f4       0x16 C:\Users\19156\Desktop\DualModeKeyboard\LIB\libCH57xBLE.a(tmos.o)
                0x00000000000051f4                TMOS_ProcessRegister
 .text.TMOS_Init
                0x000000000000520a       0xea C:\Users\19156\Desktop\DualModeKeyboard\LIB\libCH57xBLE.a(tmos.o)
                0x000000000000520a                TMOS_Init
 .text.TMOS_ProcessEventRegister
                0x00000000000052f4       0x38 C:\Users\19156\Desktop\DualModeKeyboard\LIB\libCH57xBLE.a(tmos.o)
                0x00000000000052f4                TMOS_ProcessEventRegister
 .text.BLE_LibInit
                0x000000000000532c      0x1a4 C:\Users\19156\Desktop\DualModeKeyboard\LIB\libCH57xBLE.a(tmos.o)
                0x000000000000532c                BLE_LibInit
 .text.ble_ll_common_rand8
                0x00000000000054d0       0x24 C:\Users\19156\Desktop\DualModeKeyboard\LIB\libCH57xBLE.a(tmos_hw.o)
                0x00000000000054d0                ble_ll_common_rand8
 .text.ble_ll_common_rand16
                0x00000000000054f4       0x24 C:\Users\19156\Desktop\DualModeKeyboard\LIB\libCH57xBLE.a(tmos_hw.o)
                0x00000000000054f4                ble_ll_common_rand16
 .text.ble_ll_common_rand32
                0x0000000000005518       0x20 C:\Users\19156\Desktop\DualModeKeyboard\LIB\libCH57xBLE.a(tmos_hw.o)
                0x0000000000005518                ble_ll_common_rand32
 .text.ll_hw_temp_sample
                0x0000000000005538       0xc0 C:\Users\19156\Desktop\DualModeKeyboard\LIB\libCH57xBLE.a(tmos_hw.o)
                0x0000000000005538                ll_hw_temp_sample
 .text.TMOS_TimerInit
                0x00000000000055f8       0x5e C:\Users\19156\Desktop\DualModeKeyboard\LIB\libCH57xBLE.a(tmos_hw.o)
                0x00000000000055f8                TMOS_TimerInit
 .text.tmos_snv_init
                0x0000000000005656       0xbc C:\Users\19156\Desktop\DualModeKeyboard\LIB\libCH57xBLE.a(tmos_snv.o)
                0x0000000000005656                tmos_snv_init
 .text.tmos_snv_clear
                0x0000000000005712       0xae C:\Users\19156\Desktop\DualModeKeyboard\LIB\libCH57xBLE.a(tmos_snv.o)
                0x0000000000005712                tmos_snv_clear
 .text.tmos_snv_read
                0x00000000000057c0      0x292 C:\Users\19156\Desktop\DualModeKeyboard\LIB\libCH57xBLE.a(tmos_snv.o)
                0x00000000000057c0                tmos_snv_read
 .text.tmos_snv_notify
                0x0000000000005a52       0x5a C:\Users\19156\Desktop\DualModeKeyboard\LIB\libCH57xBLE.a(tmos_snv.o)
                0x0000000000005a52                tmos_snv_notify
 .text.tmos_snv_write
                0x0000000000005aac      0x2ce C:\Users\19156\Desktop\DualModeKeyboard\LIB\libCH57xBLE.a(tmos_snv.o)
                0x0000000000005aac                tmos_snv_write
 .text.tmos_snv_compact
                0x0000000000005d7a        0x4 C:\Users\19156\Desktop\DualModeKeyboard\LIB\libCH57xBLE.a(tmos_snv.o)
                0x0000000000005d7a                tmos_snv_compact
 .text.disconnectNext
                0x0000000000005d7e       0x22 C:\Users\19156\Desktop\DualModeKeyboard\LIB\libCH57xBLE.a(gap.o)
 .text.GAP_ParamInit
                0x0000000000005da0       0x80 C:\Users\19156\Desktop\DualModeKeyboard\LIB\libCH57xBLE.a(gap.o)
                0x0000000000005da0                GAP_ParamInit
 .text.sendTerminateEvent
                0x0000000000005e20       0x58 C:\Users\19156\Desktop\DualModeKeyboard\LIB\libCH57xBLE.a(gap.o)
                0x0000000000005e20                sendTerminateEvent
 .text.gapRegisterCentral
                0x0000000000005e78        0x6 C:\Users\19156\Desktop\DualModeKeyboard\LIB\libCH57xBLE.a(gap.o)
                0x0000000000005e78                gapRegisterCentral
 .text.gapRegisterCentralConn
                0x0000000000005e7e        0x6 C:\Users\19156\Desktop\DualModeKeyboard\LIB\libCH57xBLE.a(gap.o)
                0x0000000000005e7e                gapRegisterCentralConn
 .text.gapRegisterPeripheral
                0x0000000000005e84        0x6 C:\Users\19156\Desktop\DualModeKeyboard\LIB\libCH57xBLE.a(gap.o)
                0x0000000000005e84                gapRegisterPeripheral
 .text.gapRegisterPeripheralConn
                0x0000000000005e8a        0x6 C:\Users\19156\Desktop\DualModeKeyboard\LIB\libCH57xBLE.a(gap.o)
                0x0000000000005e8a                gapRegisterPeripheralConn
 .text.smGenerateRandBuf
                0x0000000000005e90       0x56 C:\Users\19156\Desktop\DualModeKeyboard\LIB\libCH57xBLE.a(gap.o)
                0x0000000000005e90                smGenerateRandBuf
 .text.gapL2capConnParamUpdateReq
                0x0000000000005ee6       0x32 C:\Users\19156\Desktop\DualModeKeyboard\LIB\libCH57xBLE.a(gap.o)
                0x0000000000005ee6                gapL2capConnParamUpdateReq
 .text.gapValidADType
                0x0000000000005f18       0x16 C:\Users\19156\Desktop\DualModeKeyboard\LIB\libCH57xBLE.a(gap.o)
                0x0000000000005f18                gapValidADType
 .text.gapFindADType
                0x0000000000005f2e       0x8e C:\Users\19156\Desktop\DualModeKeyboard\LIB\libCH57xBLE.a(gap.o)
                0x0000000000005f2e                gapFindADType
 .text.GAP_SecParamsInit
                0x0000000000005fbc       0x9a C:\Users\19156\Desktop\DualModeKeyboard\LIB\libCH57xBLE.a(gap.o)
                0x0000000000005fbc                GAP_SecParamsInit
 .text.GAP_ParamsInit
                0x0000000000006056       0x48 C:\Users\19156\Desktop\DualModeKeyboard\LIB\libCH57xBLE.a(gap.o)
                0x0000000000006056                GAP_ParamsInit
 .text.gapAddAddrAdj
                0x000000000000609e       0x48 C:\Users\19156\Desktop\DualModeKeyboard\LIB\libCH57xBLE.a(gap.o)
                0x000000000000609e                gapAddAddrAdj
 .text.gapDetermineAddrType
                0x00000000000060e6       0x28 C:\Users\19156\Desktop\DualModeKeyboard\LIB\libCH57xBLE.a(gap.o)
                0x00000000000060e6                gapDetermineAddrType
 .text.gapFreeAuthLink
                0x000000000000610e       0x4a C:\Users\19156\Desktop\DualModeKeyboard\LIB\libCH57xBLE.a(gap.o)
                0x000000000000610e                gapFreeAuthLink
 .text.gapGetDevAddress
                0x0000000000006158       0x24 C:\Users\19156\Desktop\DualModeKeyboard\LIB\libCH57xBLE.a(gap.o)
                0x0000000000006158                gapGetDevAddress
 .text.gapGetDevAddressMode
                0x000000000000617c        0xa C:\Users\19156\Desktop\DualModeKeyboard\LIB\libCH57xBLE.a(gap.o)
                0x000000000000617c                gapGetDevAddressMode
 .text.gapGetIRK
                0x0000000000006186        0xc C:\Users\19156\Desktop\DualModeKeyboard\LIB\libCH57xBLE.a(gap.o)
                0x0000000000006186                gapGetIRK
 .text.gapGetSRK
                0x0000000000006192        0xc C:\Users\19156\Desktop\DualModeKeyboard\LIB\libCH57xBLE.a(gap.o)
                0x0000000000006192                gapGetSRK
 .text.gapGetSignCounter
                0x000000000000619e        0xe C:\Users\19156\Desktop\DualModeKeyboard\LIB\libCH57xBLE.a(gap.o)
                0x000000000000619e                gapGetSignCounter
 .text.gapIncSignCounter
                0x00000000000061ac       0x28 C:\Users\19156\Desktop\DualModeKeyboard\LIB\libCH57xBLE.a(gap.o)
                0x00000000000061ac                gapIncSignCounter
 .text.gapProcessConnEvt
                0x00000000000061d4       0x48 C:\Users\19156\Desktop\DualModeKeyboard\LIB\libCH57xBLE.a(gap.o)
                0x00000000000061d4                gapProcessConnEvt
 .text.gapProcessDisconnectCompleteEvt
                0x000000000000621c       0xa8 C:\Users\19156\Desktop\DualModeKeyboard\LIB\libCH57xBLE.a(gap.o)
                0x000000000000621c                gapProcessDisconnectCompleteEvt
 .text.sendAuthEvent
                0x00000000000062c4      0x11a C:\Users\19156\Desktop\DualModeKeyboard\LIB\libCH57xBLE.a(gap.o)
                0x00000000000062c4                sendAuthEvent
 .text.gapSendBondCompleteEvent
                0x00000000000063de       0x70 C:\Users\19156\Desktop\DualModeKeyboard\LIB\libCH57xBLE.a(gap.o)
                0x00000000000063de                gapSendBondCompleteEvent
 .text.gapSendPairingReqEvent
                0x000000000000644e       0x92 C:\Users\19156\Desktop\DualModeKeyboard\LIB\libCH57xBLE.a(gap.o)
                0x000000000000644e                gapSendPairingReqEvent
 .text.gapSendSlaveSecurityReqEvent
                0x00000000000064e0       0x68 C:\Users\19156\Desktop\DualModeKeyboard\LIB\libCH57xBLE.a(gap.o)
                0x00000000000064e0                gapSendSlaveSecurityReqEvent
 .text.gapSendDeviceInitDoneEvent
                0x0000000000006548       0x88 C:\Users\19156\Desktop\DualModeKeyboard\LIB\libCH57xBLE.a(gap.o)
                0x0000000000006548                gapSendDeviceInitDoneEvent
 .text.gapSendLinkUpdateEvent
                0x00000000000065d0       0x84 C:\Users\19156\Desktop\DualModeKeyboard\LIB\libCH57xBLE.a(gap.o)
                0x00000000000065d0                gapSendLinkUpdateEvent
 .text.gapSendEstLinkEvent
                0x0000000000006654       0xb8 C:\Users\19156\Desktop\DualModeKeyboard\LIB\libCH57xBLE.a(gap.o)
                0x0000000000006654                gapSendEstLinkEvent
 .text.gapProcessNewAddr
                0x000000000000670c       0x3e C:\Users\19156\Desktop\DualModeKeyboard\LIB\libCH57xBLE.a(gap.o)
                0x000000000000670c                gapProcessNewAddr
 .text.gapProcessRandomAddrComplete
                0x000000000000674a       0xb6 C:\Users\19156\Desktop\DualModeKeyboard\LIB\libCH57xBLE.a(gap.o)
                0x000000000000674a                gapProcessRandomAddrComplete
 .text.GAP_Authenticate
                0x0000000000006800       0xd2 C:\Users\19156\Desktop\DualModeKeyboard\LIB\libCH57xBLE.a(gap.o)
                0x0000000000006800                GAP_Authenticate
 .text.GAP_Bond
                0x00000000000068d2       0xa2 C:\Users\19156\Desktop\DualModeKeyboard\LIB\libCH57xBLE.a(gap.o)
                0x00000000000068d2                GAP_Bond
 .text.GAP_GetParamValue
                0x0000000000006974       0x1e C:\Users\19156\Desktop\DualModeKeyboard\LIB\libCH57xBLE.a(gap.o)
                0x0000000000006974                GAP_GetParamValue
 .text.GAP_PasscodeUpdate
                0x0000000000006992       0x50 C:\Users\19156\Desktop\DualModeKeyboard\LIB\libCH57xBLE.a(gap.o)
                0x0000000000006992                GAP_PasscodeUpdate
 .text.GAP_RegisterForMsgs
                0x00000000000069e2        0x6 C:\Users\19156\Desktop\DualModeKeyboard\LIB\libCH57xBLE.a(gap.o)
                0x00000000000069e2                GAP_RegisterForMsgs
 .text.GAP_ResolvePrivateAddr
                0x00000000000069e8        0x4 C:\Users\19156\Desktop\DualModeKeyboard\LIB\libCH57xBLE.a(gap.o)
                0x00000000000069e8                GAP_ResolvePrivateAddr
 .text.gapPairingCompleteCB
                0x00000000000069ec      0x188 C:\Users\19156\Desktop\DualModeKeyboard\LIB\libCH57xBLE.a(gap.o)
                0x00000000000069ec                gapPairingCompleteCB
 .text.gapPasskeyNeededCB
                0x0000000000006b74       0x8e C:\Users\19156\Desktop\DualModeKeyboard\LIB\libCH57xBLE.a(gap.o)
                0x0000000000006b74                gapPasskeyNeededCB
 .text.gapFreeEstLink
                0x0000000000006c02       0x20 C:\Users\19156\Desktop\DualModeKeyboard\LIB\libCH57xBLE.a(gap.o)
                0x0000000000006c02                gapFreeEstLink
 .text.gapUpdateConnSignCounter
                0x0000000000006c22       0x7a C:\Users\19156\Desktop\DualModeKeyboard\LIB\libCH57xBLE.a(gap.o)
                0x0000000000006c22                gapUpdateConnSignCounter
 .text.GAP_SendSlaveSecurityRequest
                0x0000000000006c9c       0x4c C:\Users\19156\Desktop\DualModeKeyboard\LIB\libCH57xBLE.a(gap.o)
                0x0000000000006c9c                GAP_SendSlaveSecurityRequest
 .text.GAP_Signable
                0x0000000000006ce8       0x66 C:\Users\19156\Desktop\DualModeKeyboard\LIB\libCH57xBLE.a(gap.o)
                0x0000000000006ce8                GAP_Signable
 .text.GAP_TerminateAuth
                0x0000000000006d4e       0x2a C:\Users\19156\Desktop\DualModeKeyboard\LIB\libCH57xBLE.a(gap.o)
                0x0000000000006d4e                GAP_TerminateAuth
 .text.GAP_NumActiveConnections
                0x0000000000006d78        0x4 C:\Users\19156\Desktop\DualModeKeyboard\LIB\libCH57xBLE.a(gap.o)
                0x0000000000006d78                GAP_NumActiveConnections
 .text.GAP_TerminateLinkReq
                0x0000000000006d7c       0x8e C:\Users\19156\Desktop\DualModeKeyboard\LIB\libCH57xBLE.a(gap.o)
                0x0000000000006d7c                GAP_TerminateLinkReq
 .text.GAP_SetParamValue
                0x0000000000006e0a       0x4a C:\Users\19156\Desktop\DualModeKeyboard\LIB\libCH57xBLE.a(gap.o)
                0x0000000000006e0a                GAP_SetParamValue
 .text.GAP_Init
                0x0000000000006e54       0x44 C:\Users\19156\Desktop\DualModeKeyboard\LIB\libCH57xBLE.a(gap.o)
                0x0000000000006e54                GAP_Init
 .text.GAP_ProcessEvent
                0x0000000000006e98      0x578 C:\Users\19156\Desktop\DualModeKeyboard\LIB\libCH57xBLE.a(gap.o)
                0x0000000000006e98                GAP_ProcessEvent
 .text.gapSendScanEnable
                0x0000000000007410       0x1e C:\Users\19156\Desktop\DualModeKeyboard\LIB\libCH57xBLE.a(gap_central.o)
 .text.gapCentProcessConnEvt
                0x000000000000742e      0x148 C:\Users\19156\Desktop\DualModeKeyboard\LIB\libCH57xBLE.a(gap_central.o)
                0x000000000000742e                gapCentProcessConnEvt
 .text.gapCancelLinkReq
                0x0000000000007576       0x38 C:\Users\19156\Desktop\DualModeKeyboard\LIB\libCH57xBLE.a(gap_central.o)
                0x0000000000007576                gapCancelLinkReq
 .text.GAP_CentralParamInit
                0x00000000000075ae       0x4c C:\Users\19156\Desktop\DualModeKeyboard\LIB\libCH57xBLE.a(gap_central.o)
                0x00000000000075ae                GAP_CentralParamInit
 .text.gapProcessAdvertDevInfo
                0x00000000000075fa      0x23a C:\Users\19156\Desktop\DualModeKeyboard\LIB\libCH57xBLE.a(gap_central.o)
                0x00000000000075fa                gapProcessAdvertDevInfo
 .text.gapFreeScanRecs
                0x0000000000007834       0xa2 C:\Users\19156\Desktop\DualModeKeyboard\LIB\libCH57xBLE.a(gap_central.o)
                0x0000000000007834                gapFreeScanRecs
 .text.gapSendDevDiscEvent
                0x00000000000078d6      0x124 C:\Users\19156\Desktop\DualModeKeyboard\LIB\libCH57xBLE.a(gap_central.o)
                0x00000000000078d6                gapSendDevDiscEvent
 .text.gapSetScanParamStatus.part.2
                0x00000000000079fa       0x40 C:\Users\19156\Desktop\DualModeKeyboard\LIB\libCH57xBLE.a(gap_central.o)
 .text.gapCentProcessHCICmdEvt
                0x0000000000007a3a       0x3c C:\Users\19156\Desktop\DualModeKeyboard\LIB\libCH57xBLE.a(gap_central.o)
                0x0000000000007a3a                gapCentProcessHCICmdEvt
 .text.gapProcessScanningEvt
                0x0000000000007a76      0x110 C:\Users\19156\Desktop\DualModeKeyboard\LIB\libCH57xBLE.a(gap_central.o)
                0x0000000000007a76                gapProcessScanningEvt
 .text.gapProcessScanningDirectEvt
                0x0000000000007b86       0xfe C:\Users\19156\Desktop\DualModeKeyboard\LIB\libCH57xBLE.a(gap_central.o)
                0x0000000000007b86                gapProcessScanningDirectEvt
 .text.GAP_CentConnRegister
                0x0000000000007c84       0x12 C:\Users\19156\Desktop\DualModeKeyboard\LIB\libCH57xBLE.a(gap_central.o)
                0x0000000000007c84                GAP_CentConnRegister
 .text.GAP_CentDevMgrInit
                0x0000000000007c96       0x94 C:\Users\19156\Desktop\DualModeKeyboard\LIB\libCH57xBLE.a(gap_central.o)
                0x0000000000007c96                GAP_CentDevMgrInit
 .text.gapFreeAdvertState
                0x0000000000007d2a       0x20 C:\Users\19156\Desktop\DualModeKeyboard\LIB\libCH57xBLE.a(gap_peripheral.o)
 .text.gapPeriProcessConnEvt
                0x0000000000007d4a       0xbc C:\Users\19156\Desktop\DualModeKeyboard\LIB\libCH57xBLE.a(gap_peripheral.o)
 .text.gapSetAdvParams
                0x0000000000007e06       0x7e C:\Users\19156\Desktop\DualModeKeyboard\LIB\libCH57xBLE.a(gap_peripheral.o)
 .text.GAP_PeripheralParamInit
                0x0000000000007e84       0x4a C:\Users\19156\Desktop\DualModeKeyboard\LIB\libCH57xBLE.a(gap_peripheral.o)
                0x0000000000007e84                GAP_PeripheralParamInit
 .text.gapSendMakeDiscEvent
                0x0000000000007ece       0x50 C:\Users\19156\Desktop\DualModeKeyboard\LIB\libCH57xBLE.a(gap_peripheral.o)
                0x0000000000007ece                gapSendMakeDiscEvent
 .text.gapPeriProcessHCICmdCompleteEvt
                0x0000000000007f1e      0x192 C:\Users\19156\Desktop\DualModeKeyboard\LIB\libCH57xBLE.a(gap_peripheral.o)
 .text.GAP_MakeDiscoverable
                0x00000000000080b0       0xf0 C:\Users\19156\Desktop\DualModeKeyboard\LIB\libCH57xBLE.a(gap_peripheral.o)
                0x00000000000080b0                GAP_MakeDiscoverable
 .text.GAP_EndDiscoverable
                0x00000000000081a0       0x5c C:\Users\19156\Desktop\DualModeKeyboard\LIB\libCH57xBLE.a(gap_peripheral.o)
                0x00000000000081a0                GAP_EndDiscoverable
 .text.gapProcessAdvertisingEvt
                0x00000000000081fc       0x90 C:\Users\19156\Desktop\DualModeKeyboard\LIB\libCH57xBLE.a(gap_peripheral.o)
 .text.GAP_UpdateAdvertisingData
                0x000000000000828c       0xb8 C:\Users\19156\Desktop\DualModeKeyboard\LIB\libCH57xBLE.a(gap_peripheral.o)
                0x000000000000828c                GAP_UpdateAdvertisingData
 .text.GAP_ConfigDeviceAddr
                0x0000000000008344      0x10e C:\Users\19156\Desktop\DualModeKeyboard\LIB\libCH57xBLE.a(gap_peripheral.o)
                0x0000000000008344                GAP_ConfigDeviceAddr
 .text.GAP_PeriConnRegister
                0x0000000000008452       0x2a C:\Users\19156\Desktop\DualModeKeyboard\LIB\libCH57xBLE.a(gap_peripheral.o)
                0x0000000000008452                GAP_PeriConnRegister
 .text.GAP_PeriDevMgrInit
                0x000000000000847c       0xbc C:\Users\19156\Desktop\DualModeKeyboard\LIB\libCH57xBLE.a(gap_peripheral.o)
                0x000000000000847c                GAP_PeriDevMgrInit
 .text.ggs_SetAttrWPermit
                0x0000000000008538       0x68 C:\Users\19156\Desktop\DualModeKeyboard\LIB\libCH57xBLE.a(gapgattserver.o)
 .text.ggs_ReadAttrCB
                0x00000000000085a0      0x152 C:\Users\19156\Desktop\DualModeKeyboard\LIB\libCH57xBLE.a(gapgattserver.o)
 .text.ggs_WriteAttrCB
                0x00000000000086f2      0x154 C:\Users\19156\Desktop\DualModeKeyboard\LIB\libCH57xBLE.a(gapgattserver.o)
 .text.GGS_ParamInit
                0x0000000000008846      0x23a C:\Users\19156\Desktop\DualModeKeyboard\LIB\libCH57xBLE.a(gapgattserver.o)
                0x0000000000008846                GGS_ParamInit
 .text.GGS_SetParameter
                0x0000000000008a80       0xde C:\Users\19156\Desktop\DualModeKeyboard\LIB\libCH57xBLE.a(gapgattserver.o)
                0x0000000000008a80                GGS_SetParameter
 .text.GGS_AddService
                0x0000000000008b5e       0x2c C:\Users\19156\Desktop\DualModeKeyboard\LIB\libCH57xBLE.a(gapgattserver.o)
                0x0000000000008b5e                GGS_AddService
 .text.GAP_DeviceInit
                0x0000000000008b8a       0xd8 C:\Users\19156\Desktop\DualModeKeyboard\LIB\libCH57xBLE.a(gapgattserver.o)
                0x0000000000008b8a                GAP_DeviceInit
 .text.gattGetPayload
                0x0000000000008c62       0x7e C:\Users\19156\Desktop\DualModeKeyboard\LIB\libCH57xBLE.a(gatt.o)
                0x0000000000008c62                gattGetPayload
 .text.gattNotifyEvent
                0x0000000000008ce0       0x80 C:\Users\19156\Desktop\DualModeKeyboard\LIB\libCH57xBLE.a(gatt.o)
                0x0000000000008ce0                gattNotifyEvent
 .text.gattSendFlowCtrlEvt
                0x0000000000008d60       0x4a C:\Users\19156\Desktop\DualModeKeyboard\LIB\libCH57xBLE.a(gatt.o)
                0x0000000000008d60                gattSendFlowCtrlEvt
 .text.gattStartTimer
                0x0000000000008daa        0xc C:\Users\19156\Desktop\DualModeKeyboard\LIB\libCH57xBLE.a(gatt.o)
                0x0000000000008daa                gattStartTimer
 .text.gattStopTimer
                0x0000000000008db6       0x32 C:\Users\19156\Desktop\DualModeKeyboard\LIB\libCH57xBLE.a(gatt.o)
                0x0000000000008db6                gattStopTimer
 .text.GATT_AppCompletedMsg
                0x0000000000008de8       0x30 C:\Users\19156\Desktop\DualModeKeyboard\LIB\libCH57xBLE.a(gatt.o)
                0x0000000000008de8                GATT_AppCompletedMsg
 .text.GATT_NotifyEvent
                0x0000000000008e18       0x4e C:\Users\19156\Desktop\DualModeKeyboard\LIB\libCH57xBLE.a(gatt.o)
                0x0000000000008e18                GATT_NotifyEvent
 .text.gattRegisterServer
                0x0000000000008e66        0x6 C:\Users\19156\Desktop\DualModeKeyboard\LIB\libCH57xBLE.a(gatt.o)
                0x0000000000008e66                gattRegisterServer
 .text.GATT_UpdateMTU
                0x0000000000008e6c       0x5c C:\Users\19156\Desktop\DualModeKeyboard\LIB\libCH57xBLE.a(gatt.o)
                0x0000000000008e6c                GATT_UpdateMTU
 .text.GATT_bm_alloc
                0x0000000000008ec8       0xea C:\Users\19156\Desktop\DualModeKeyboard\LIB\libCH57xBLE.a(gatt.o)
                0x0000000000008ec8                GATT_bm_alloc
 .text.GATT_ServiceChangedInd
                0x0000000000008fb2       0x94 C:\Users\19156\Desktop\DualModeKeyboard\LIB\libCH57xBLE.a(gatt.o)
                0x0000000000008fb2                GATT_ServiceChangedInd
 .text.GATT_bm_free
                0x0000000000009046       0x1c C:\Users\19156\Desktop\DualModeKeyboard\LIB\libCH57xBLE.a(gatt.o)
                0x0000000000009046                GATT_bm_free
 .text.GATT_RegisterForPeriMsgs
                0x0000000000009062        0x6 C:\Users\19156\Desktop\DualModeKeyboard\LIB\libCH57xBLE.a(gatt.o)
                0x0000000000009062                GATT_RegisterForPeriMsgs
 .text.GATT_Init
                0x0000000000009068       0x30 C:\Users\19156\Desktop\DualModeKeyboard\LIB\libCH57xBLE.a(gatt.o)
                0x0000000000009068                GATT_Init
 .text.GATT_ProcessEvent
                0x0000000000009098      0x136 C:\Users\19156\Desktop\DualModeKeyboard\LIB\libCH57xBLE.a(gatt.o)
                0x0000000000009098                GATT_ProcessEvent
 .text.gattProcessExchangeMTUReq
                0x00000000000091ce        0x4 C:\Users\19156\Desktop\DualModeKeyboard\LIB\libCH57xBLE.a(gattservapp.o)
 .text.gattServApp_FindCharCfgItem
                0x00000000000091d2       0x20 C:\Users\19156\Desktop\DualModeKeyboard\LIB\libCH57xBLE.a(gattservapp.o)
 .text.gattServerHandleTimerCB
                0x00000000000091f2       0x3c C:\Users\19156\Desktop\DualModeKeyboard\LIB\libCH57xBLE.a(gattservapp.o)
 .text.GATTServApp_InitCharCfg.part.12
                0x000000000000922e       0x1c C:\Users\19156\Desktop\DualModeKeyboard\LIB\libCH57xBLE.a(gattservapp.o)
 .text.gattProcessExecuteWriteReq
                0x000000000000924a        0x4 C:\Users\19156\Desktop\DualModeKeyboard\LIB\libCH57xBLE.a(gattservapp.o)
 .text.GATTServApp_ParamInit
                0x000000000000924e       0xd6 C:\Users\19156\Desktop\DualModeKeyboard\LIB\libCH57xBLE.a(gattservapp.o)
                0x000000000000924e                GATTServApp_ParamInit
 .text.GATTServApp_ReadCharCfg
                0x0000000000009324       0x18 C:\Users\19156\Desktop\DualModeKeyboard\LIB\libCH57xBLE.a(gattservapp.o)
                0x0000000000009324                GATTServApp_ReadCharCfg
 .text.GATTServApp_WriteCharCfg
                0x000000000000933c       0x3c C:\Users\19156\Desktop\DualModeKeyboard\LIB\libCH57xBLE.a(gattservapp.o)
                0x000000000000933c                GATTServApp_WriteCharCfg
 .text.GATTServApp_ProcessCCCWriteReq
                0x0000000000009378       0x60 C:\Users\19156\Desktop\DualModeKeyboard\LIB\libCH57xBLE.a(gattservapp.o)
                0x0000000000009378                GATTServApp_ProcessCCCWriteReq
 .text.gattServApp_WriteAttrCB
                0x00000000000093d8       0x34 C:\Users\19156\Desktop\DualModeKeyboard\LIB\libCH57xBLE.a(gattservapp.o)
                0x00000000000093d8                gattServApp_WriteAttrCB
 .text.GATTServApp_SendCCCUpdatedEvent
                0x000000000000940c       0x5e C:\Users\19156\Desktop\DualModeKeyboard\LIB\libCH57xBLE.a(gattservapp.o)
                0x000000000000940c                GATTServApp_SendCCCUpdatedEvent
 .text.GATTServApp_SendServiceChangedInd
                0x000000000000946a       0x36 C:\Users\19156\Desktop\DualModeKeyboard\LIB\libCH57xBLE.a(gattservapp.o)
                0x000000000000946a                GATTServApp_SendServiceChangedInd
 .text.gattServApp_ClearPrepareWriteQ
                0x00000000000094a0       0x4c C:\Users\19156\Desktop\DualModeKeyboard\LIB\libCH57xBLE.a(gattservapp.o)
                0x00000000000094a0                gattServApp_ClearPrepareWriteQ
 .text.gattServApp_FindPrepareWriteQ
                0x00000000000094ec       0x2c C:\Users\19156\Desktop\DualModeKeyboard\LIB\libCH57xBLE.a(gattservapp.o)
                0x00000000000094ec                gattServApp_FindPrepareWriteQ
 .text.gattServApp_FindServiceCBs
                0x0000000000009518       0x18 C:\Users\19156\Desktop\DualModeKeyboard\LIB\libCH57xBLE.a(gattservapp.o)
                0x0000000000009518                gattServApp_FindServiceCBs
 .text.gattServApp_FindAuthorizeAttrCB
                0x0000000000009530       0x16 C:\Users\19156\Desktop\DualModeKeyboard\LIB\libCH57xBLE.a(gattservapp.o)
                0x0000000000009530                gattServApp_FindAuthorizeAttrCB
 .text.gattServApp_IsWriteLong
                0x0000000000009546       0xe6 C:\Users\19156\Desktop\DualModeKeyboard\LIB\libCH57xBLE.a(gattservapp.o)
                0x0000000000009546                gattServApp_IsWriteLong
 .text.gattFindService
                0x000000000000962c       0x1c C:\Users\19156\Desktop\DualModeKeyboard\LIB\libCH57xBLE.a(gattservapp.o)
                0x000000000000962c                gattFindService
 .text.GATT_ServiceNumAttrs
                0x0000000000009648       0x18 C:\Users\19156\Desktop\DualModeKeyboard\LIB\libCH57xBLE.a(gattservapp.o)
                0x0000000000009648                GATT_ServiceNumAttrs
 .text.GATT_ServiceEncKeySize
                0x0000000000009660       0x18 C:\Users\19156\Desktop\DualModeKeyboard\LIB\libCH57xBLE.a(gattservapp.o)
                0x0000000000009660                GATT_ServiceEncKeySize
 .text.GATT_VerifyWritePermissions.part.7
                0x0000000000009678       0x2e C:\Users\19156\Desktop\DualModeKeyboard\LIB\libCH57xBLE.a(gattservapp.o)
 .text.gattResetServerInfo
                0x00000000000096a6       0x1c C:\Users\19156\Desktop\DualModeKeyboard\LIB\libCH57xBLE.a(gattservapp.o)
                0x00000000000096a6                gattResetServerInfo
 .text.gattFindServerInfo
                0x00000000000096c2       0x28 C:\Users\19156\Desktop\DualModeKeyboard\LIB\libCH57xBLE.a(gattservapp.o)
                0x00000000000096c2                gattFindServerInfo
 .text.gattServerHandleConnStatusCB
                0x00000000000096ea       0x98 C:\Users\19156\Desktop\DualModeKeyboard\LIB\libCH57xBLE.a(gattservapp.o)
                0x00000000000096ea                gattServerHandleConnStatusCB
 .text.gattServerProcessMsgCB
                0x0000000000009782      0x1c0 C:\Users\19156\Desktop\DualModeKeyboard\LIB\libCH57xBLE.a(gattservapp.o)
                0x0000000000009782                gattServerProcessMsgCB
 .text.gattServerNotifyTxCB
                0x0000000000009942       0x28 C:\Users\19156\Desktop\DualModeKeyboard\LIB\libCH57xBLE.a(gattservapp.o)
 .text.GATT_FindHandle
                0x000000000000996a       0x4a C:\Users\19156\Desktop\DualModeKeyboard\LIB\libCH57xBLE.a(gattservapp.o)
                0x000000000000996a                GATT_FindHandle
 .text.GATTServApp_WriteAttr
                0x00000000000099b4       0xa8 C:\Users\19156\Desktop\DualModeKeyboard\LIB\libCH57xBLE.a(gattservapp.o)
                0x00000000000099b4                GATTServApp_WriteAttr
 .text.gattServApp_ProcessExecuteWriteReq
                0x0000000000009a5c      0x100 C:\Users\19156\Desktop\DualModeKeyboard\LIB\libCH57xBLE.a(gattservapp.o)
                0x0000000000009a5c                gattServApp_ProcessExecuteWriteReq
 .text.GATTServApp_UpdateCharCfg
                0x0000000000009b5c       0x1e C:\Users\19156\Desktop\DualModeKeyboard\LIB\libCH57xBLE.a(gattservapp.o)
                0x0000000000009b5c                GATTServApp_UpdateCharCfg
 .text.gattServApp_ProcessPrepareWriteReq
                0x0000000000009b7a      0x10e C:\Users\19156\Desktop\DualModeKeyboard\LIB\libCH57xBLE.a(gattservapp.o)
                0x0000000000009b7a                gattServApp_ProcessPrepareWriteReq
 .text.gattServApp_ProcessWriteReq
                0x0000000000009c88       0xb0 C:\Users\19156\Desktop\DualModeKeyboard\LIB\libCH57xBLE.a(gattservapp.o)
                0x0000000000009c88                gattServApp_ProcessWriteReq
 .text.GATT_Indication
                0x0000000000009d38       0xa4 C:\Users\19156\Desktop\DualModeKeyboard\LIB\libCH57xBLE.a(gattservapp.o)
                0x0000000000009d38                GATT_Indication
 .text.GATT_FindHandleUUID
                0x0000000000009ddc       0x94 C:\Users\19156\Desktop\DualModeKeyboard\LIB\libCH57xBLE.a(gattservapp.o)
                0x0000000000009ddc                GATT_FindHandleUUID
 .text.gattProcessReadByGrpTypeReq
                0x0000000000009e70       0x60 C:\Users\19156\Desktop\DualModeKeyboard\LIB\libCH57xBLE.a(gattservapp.o)
 .text.gattProcessReadByTypeReq
                0x0000000000009ed0       0x34 C:\Users\19156\Desktop\DualModeKeyboard\LIB\libCH57xBLE.a(gattservapp.o)
 .text.gattProcessFindByTypeValueReq
                0x0000000000009f04       0x34 C:\Users\19156\Desktop\DualModeKeyboard\LIB\libCH57xBLE.a(gattservapp.o)
 .text.gattProcessFindInfoReq
                0x0000000000009f38      0x1aa C:\Users\19156\Desktop\DualModeKeyboard\LIB\libCH57xBLE.a(gattservapp.o)
 .text.GATT_Notification
                0x000000000000a0e2       0x70 C:\Users\19156\Desktop\DualModeKeyboard\LIB\libCH57xBLE.a(gattservapp.o)
                0x000000000000a0e2                GATT_Notification
 .text.GATT_VerifyWritePermissions
                0x000000000000a152       0x6a C:\Users\19156\Desktop\DualModeKeyboard\LIB\libCH57xBLE.a(gattservapp.o)
                0x000000000000a152                GATT_VerifyWritePermissions
 .text.gattProcessWriteReq
                0x000000000000a1bc       0x36 C:\Users\19156\Desktop\DualModeKeyboard\LIB\libCH57xBLE.a(gattservapp.o)
 .text.GATT_VerifyPrepareWritePermissions
                0x000000000000a1f2       0x56 C:\Users\19156\Desktop\DualModeKeyboard\LIB\libCH57xBLE.a(gattservapp.o)
                0x000000000000a1f2                GATT_VerifyPrepareWritePermissions
 .text.gattProcessPrepareWriteReq
                0x000000000000a248       0x36 C:\Users\19156\Desktop\DualModeKeyboard\LIB\libCH57xBLE.a(gattservapp.o)
 .text.GATT_FindNextAttr
                0x000000000000a27e       0xc2 C:\Users\19156\Desktop\DualModeKeyboard\LIB\libCH57xBLE.a(gattservapp.o)
                0x000000000000a27e                GATT_FindNextAttr
 .text.GATTServApp_ReadAttr
                0x000000000000a340      0x2e2 C:\Users\19156\Desktop\DualModeKeyboard\LIB\libCH57xBLE.a(gattservapp.o)
                0x000000000000a340                GATTServApp_ReadAttr
 .text.gattServApp_ProcessReadMultiReq
                0x000000000000a622      0x16e C:\Users\19156\Desktop\DualModeKeyboard\LIB\libCH57xBLE.a(gattservapp.o)
                0x000000000000a622                gattServApp_ProcessReadMultiReq
 .text.gattServApp_ProcessFindByTypeValueReq
                0x000000000000a790      0x19c C:\Users\19156\Desktop\DualModeKeyboard\LIB\libCH57xBLE.a(gattservapp.o)
                0x000000000000a790                gattServApp_ProcessFindByTypeValueReq
 .text.GATT_VerifyReadPermissions
                0x000000000000a92c       0x68 C:\Users\19156\Desktop\DualModeKeyboard\LIB\libCH57xBLE.a(gattservapp.o)
                0x000000000000a92c                GATT_VerifyReadPermissions
 .text.gattProcessReadMultiReq
                0x000000000000a994       0xae C:\Users\19156\Desktop\DualModeKeyboard\LIB\libCH57xBLE.a(gattservapp.o)
 .text.gattProcessReadReq
                0x000000000000aa42       0x30 C:\Users\19156\Desktop\DualModeKeyboard\LIB\libCH57xBLE.a(gattservapp.o)
 .text.gattServApp_ProcessReadByGrpTypeReq
                0x000000000000aa72      0x21c C:\Users\19156\Desktop\DualModeKeyboard\LIB\libCH57xBLE.a(gattservapp.o)
                0x000000000000aa72                gattServApp_ProcessReadByGrpTypeReq
 .text.gattServApp_ProcessReadByTypeReq
                0x000000000000ac8e      0x1ae C:\Users\19156\Desktop\DualModeKeyboard\LIB\libCH57xBLE.a(gattservapp.o)
                0x000000000000ac8e                gattServApp_ProcessReadByTypeReq
 .text.GATT_RegisterService
                0x000000000000ae3c       0xfc C:\Users\19156\Desktop\DualModeKeyboard\LIB\libCH57xBLE.a(gattservapp.o)
                0x000000000000ae3c                GATT_RegisterService
 .text.GATTServApp_RegisterService
                0x000000000000af38       0x8a C:\Users\19156\Desktop\DualModeKeyboard\LIB\libCH57xBLE.a(gattservapp.o)
                0x000000000000af38                GATTServApp_RegisterService
 .text.GATTServApp_AddService
                0x000000000000afc2       0x2c C:\Users\19156\Desktop\DualModeKeyboard\LIB\libCH57xBLE.a(gattservapp.o)
                0x000000000000afc2                GATTServApp_AddService
 .text.GATTServApp_RegisterForMsg
                0x000000000000afee        0x6 C:\Users\19156\Desktop\DualModeKeyboard\LIB\libCH57xBLE.a(gattservapp.o)
                0x000000000000afee                GATTServApp_RegisterForMsg
 .text.GATTServApp_InitCharCfg
                0x000000000000aff4       0x28 C:\Users\19156\Desktop\DualModeKeyboard\LIB\libCH57xBLE.a(gattservapp.o)
                0x000000000000aff4                GATTServApp_InitCharCfg
 .text.gattServApp_HandleConnStatusCB
                0x000000000000b01c       0x74 C:\Users\19156\Desktop\DualModeKeyboard\LIB\libCH57xBLE.a(gattservapp.o)
                0x000000000000b01c                gattServApp_HandleConnStatusCB
 .text.GATT_InitServer
                0x000000000000b090       0xf6 C:\Users\19156\Desktop\DualModeKeyboard\LIB\libCH57xBLE.a(gattservapp.o)
                0x000000000000b090                GATT_InitServer
 .text.GATTServApp_Init
                0x000000000000b186       0x34 C:\Users\19156\Desktop\DualModeKeyboard\LIB\libCH57xBLE.a(gattservapp.o)
                0x000000000000b186                GATTServApp_Init
 .text.GATTServApp_ProcessEvent
                0x000000000000b1ba      0x366 C:\Users\19156\Desktop\DualModeKeyboard\LIB\libCH57xBLE.a(gattservapp.o)
                0x000000000000b1ba                GATTServApp_ProcessEvent
 .text.l2capAllocConnChannel
                0x000000000000b520       0xd8 C:\Users\19156\Desktop\DualModeKeyboard\LIB\libCH57xBLE.a(l2cap.o)
                0x000000000000b520                l2capAllocConnChannel
 .text.l2capFindLocalCID
                0x000000000000b5f8       0x2c C:\Users\19156\Desktop\DualModeKeyboard\LIB\libCH57xBLE.a(l2cap.o)
                0x000000000000b5f8                l2capFindLocalCID
 .text.l2capFindLocalId
                0x000000000000b624       0x30 C:\Users\19156\Desktop\DualModeKeyboard\LIB\libCH57xBLE.a(l2cap.o)
                0x000000000000b624                l2capFindLocalId
 .text.l2capFindPsm
                0x000000000000b654       0x2c C:\Users\19156\Desktop\DualModeKeyboard\LIB\libCH57xBLE.a(l2cap.o)
                0x000000000000b654                l2capFindPsm
 .text.l2capFindRemoteCID
                0x000000000000b680       0x3c C:\Users\19156\Desktop\DualModeKeyboard\LIB\libCH57xBLE.a(l2cap.o)
                0x000000000000b680                l2capFindRemoteCID
 .text.l2capFreeChannel
                0x000000000000b6bc       0x4a C:\Users\19156\Desktop\DualModeKeyboard\LIB\libCH57xBLE.a(l2cap.o)
                0x000000000000b6bc                l2capFreeChannel
 .text.l2capDisconnectChannel
                0x000000000000b706       0x28 C:\Users\19156\Desktop\DualModeKeyboard\LIB\libCH57xBLE.a(l2cap.o)
                0x000000000000b706                l2capDisconnectChannel
 .text.l2capHandleTimerCB
                0x000000000000b72e       0x2c C:\Users\19156\Desktop\DualModeKeyboard\LIB\libCH57xBLE.a(l2cap.o)
                0x000000000000b72e                l2capHandleTimerCB
 .text.l2capFreePendingPkt
                0x000000000000b75a       0x58 C:\Users\19156\Desktop\DualModeKeyboard\LIB\libCH57xBLE.a(l2cap.o)
                0x000000000000b75a                l2capFreePendingPkt
 .text.l2capGetCoChannelInfo
                0x000000000000b7b2       0x7e C:\Users\19156\Desktop\DualModeKeyboard\LIB\libCH57xBLE.a(l2cap.o)
                0x000000000000b7b2                l2capGetCoChannelInfo
 .text.l2capNumActiveChannnels
                0x000000000000b830       0x44 C:\Users\19156\Desktop\DualModeKeyboard\LIB\libCH57xBLE.a(l2cap.o)
                0x000000000000b830                l2capNumActiveChannnels
 .text.l2capStartTimer
                0x000000000000b874       0x1a C:\Users\19156\Desktop\DualModeKeyboard\LIB\libCH57xBLE.a(l2cap.o)
                0x000000000000b874                l2capStartTimer
 .text.l2capStopTimer
                0x000000000000b88e       0x1e C:\Users\19156\Desktop\DualModeKeyboard\LIB\libCH57xBLE.a(l2cap.o)
                0x000000000000b88e                l2capStopTimer
 .text.l2capDisconnectAllChannels
                0x000000000000b8ac       0xdc C:\Users\19156\Desktop\DualModeKeyboard\LIB\libCH57xBLE.a(l2cap.o)
                0x000000000000b8ac                l2capDisconnectAllChannels
 .text.l2capHandleConnStatusCB
                0x000000000000b988       0x3c C:\Users\19156\Desktop\DualModeKeyboard\LIB\libCH57xBLE.a(l2cap.o)
                0x000000000000b988                l2capHandleConnStatusCB
 .text.l2capHandleRxError
                0x000000000000b9c4        0x6 C:\Users\19156\Desktop\DualModeKeyboard\LIB\libCH57xBLE.a(l2cap.o)
                0x000000000000b9c4                l2capHandleRxError
 .text.L2CAP_GetMTU
                0x000000000000b9ca        0x6 C:\Users\19156\Desktop\DualModeKeyboard\LIB\libCH57xBLE.a(l2cap.o)
                0x000000000000b9ca                L2CAP_GetMTU
 .text.L2CAP_HostNumCompletedPkts
                0x000000000000b9d0       0x28 C:\Users\19156\Desktop\DualModeKeyboard\LIB\libCH57xBLE.a(l2cap.o)
                0x000000000000b9d0                L2CAP_HostNumCompletedPkts
 .text.L2CAP_ParseConnectReq
                0x000000000000b9f8       0x5e C:\Users\19156\Desktop\DualModeKeyboard\LIB\libCH57xBLE.a(l2cap.o)
                0x000000000000b9f8                L2CAP_ParseConnectReq
 .text.L2CAP_ParseFlowCtrlCredit
                0x000000000000ba56       0x2e C:\Users\19156\Desktop\DualModeKeyboard\LIB\libCH57xBLE.a(l2cap.o)
                0x000000000000ba56                L2CAP_ParseFlowCtrlCredit
 .text.L2CAP_RegisterApp
                0x000000000000ba84       0x30 C:\Users\19156\Desktop\DualModeKeyboard\LIB\libCH57xBLE.a(l2cap.o)
                0x000000000000ba84                L2CAP_RegisterApp
 .text.L2CAP_SetBufSize
                0x000000000000bab4       0x1e C:\Users\19156\Desktop\DualModeKeyboard\LIB\libCH57xBLE.a(l2cap.o)
                0x000000000000bab4                L2CAP_SetBufSize
 .text.L2CAP_bm_alloc
                0x000000000000bad2       0x30 C:\Users\19156\Desktop\DualModeKeyboard\LIB\libCH57xBLE.a(l2cap.o)
                0x000000000000bad2                L2CAP_bm_alloc
 .text.L2CAP_Init
                0x000000000000bb02       0xf0 C:\Users\19156\Desktop\DualModeKeyboard\LIB\libCH57xBLE.a(l2cap.o)
                0x000000000000bb02                L2CAP_Init
 .text.L2CAP_ProcessEvent
                0x000000000000bbf2       0xc8 C:\Users\19156\Desktop\DualModeKeyboard\LIB\libCH57xBLE.a(l2cap.o)
                0x000000000000bbf2                L2CAP_ProcessEvent
 .text.l2capParseCmdReject
                0x000000000000bcba       0x5e C:\Users\19156\Desktop\DualModeKeyboard\LIB\libCH57xBLE.a(l2cap_input.o)
                0x000000000000bcba                l2capParseCmdReject
 .text.l2capParseDisconnectReq
                0x000000000000bd18       0x2e C:\Users\19156\Desktop\DualModeKeyboard\LIB\libCH57xBLE.a(l2cap_input.o)
                0x000000000000bd18                l2capParseDisconnectReq
 .text.l2capParseDisconnectRsp
                0x000000000000bd46       0x2e C:\Users\19156\Desktop\DualModeKeyboard\LIB\libCH57xBLE.a(l2cap_input.o)
                0x000000000000bd46                l2capParseDisconnectRsp
 .text.L2CAP_ParseParamUpdateReq
                0x000000000000bd74       0x4e C:\Users\19156\Desktop\DualModeKeyboard\LIB\libCH57xBLE.a(l2cap_input.o)
                0x000000000000bd74                L2CAP_ParseParamUpdateReq
 .text.l2capParseParamUpdateRsp
                0x000000000000bdc2       0x1e C:\Users\19156\Desktop\DualModeKeyboard\LIB\libCH57xBLE.a(l2cap_input.o)
                0x000000000000bdc2                l2capParseParamUpdateRsp
 .text.l2capProcessConnectReq
                0x000000000000bde0       0xfc C:\Users\19156\Desktop\DualModeKeyboard\LIB\libCH57xBLE.a(l2cap_input.o)
                0x000000000000bde0                l2capProcessConnectReq
 .text.l2capParseConnectRsp
                0x000000000000bedc       0x5e C:\Users\19156\Desktop\DualModeKeyboard\LIB\libCH57xBLE.a(l2cap_input.o)
                0x000000000000bedc                l2capParseConnectRsp
 .text.l2capParseSignalHdr
                0x000000000000bf3a       0x22 C:\Users\19156\Desktop\DualModeKeyboard\LIB\libCH57xBLE.a(l2cap_input.o)
                0x000000000000bf3a                l2capParseSignalHdr
 .text.l2capParsePacket
                0x000000000000bf5c       0x8c C:\Users\19156\Desktop\DualModeKeyboard\LIB\libCH57xBLE.a(l2cap_input.o)
                0x000000000000bf5c                l2capParsePacket
 .text.l2capProcessReq
                0x000000000000bfe8      0x15a C:\Users\19156\Desktop\DualModeKeyboard\LIB\libCH57xBLE.a(l2cap_input.o)
                0x000000000000bfe8                l2capProcessReq
 .text.l2capProcessRsp
                0x000000000000c142      0x150 C:\Users\19156\Desktop\DualModeKeyboard\LIB\libCH57xBLE.a(l2cap_input.o)
                0x000000000000c142                l2capProcessRsp
 .text.l2capProcessRxData
                0x000000000000c292       0xf8 C:\Users\19156\Desktop\DualModeKeyboard\LIB\libCH57xBLE.a(l2cap_input.o)
                0x000000000000c292                l2capProcessRxData
 .text.l2capNotifyData
                0x000000000000c38a       0x5a C:\Users\19156\Desktop\DualModeKeyboard\LIB\libCH57xBLE.a(l2cap_output.o)
                0x000000000000c38a                l2capNotifyData
 .text.l2capNotifySignal
                0x000000000000c3e4       0x76 C:\Users\19156\Desktop\DualModeKeyboard\LIB\libCH57xBLE.a(l2cap_output.o)
                0x000000000000c3e4                l2capNotifySignal
 .text.l2capNotifyCreditEvt
                0x000000000000c45a       0x9c C:\Users\19156\Desktop\DualModeKeyboard\LIB\libCH57xBLE.a(l2cap_output.o)
                0x000000000000c45a                l2capNotifyCreditEvt
 .text.l2capNotifyChannelEstEvt
                0x000000000000c4f6       0x58 C:\Users\19156\Desktop\DualModeKeyboard\LIB\libCH57xBLE.a(l2cap_output.o)
                0x000000000000c4f6                l2capNotifyChannelEstEvt
 .text.l2capNotifyChannelTermEvt
                0x000000000000c54e       0x3e C:\Users\19156\Desktop\DualModeKeyboard\LIB\libCH57xBLE.a(l2cap_output.o)
                0x000000000000c54e                l2capNotifyChannelTermEvt
 .text.l2capNotifyEvent
                0x000000000000c58c       0x66 C:\Users\19156\Desktop\DualModeKeyboard\LIB\libCH57xBLE.a(l2cap_output.o)
                0x000000000000c58c                l2capNotifyEvent
 .text.l2capStoreFCPkt
                0x000000000000c5f2       0x32 C:\Users\19156\Desktop\DualModeKeyboard\LIB\libCH57xBLE.a(l2cap_output.o)
                0x000000000000c5f2                l2capStoreFCPkt
 .text.l2capFreeTxSDU
                0x000000000000c624       0x9a C:\Users\19156\Desktop\DualModeKeyboard\LIB\libCH57xBLE.a(l2cap_output.o)
                0x000000000000c624                l2capFreeTxSDU
 .text.l2capReassembleSegment
                0x000000000000c6be      0x174 C:\Users\19156\Desktop\DualModeKeyboard\LIB\libCH57xBLE.a(l2cap_output.o)
                0x000000000000c6be                l2capReassembleSegment
 .text.l2capEncapSendData
                0x000000000000c832       0xec C:\Users\19156\Desktop\DualModeKeyboard\LIB\libCH57xBLE.a(l2cap_output.o)
                0x000000000000c832                l2capEncapSendData
 .text.l2capSendFCPkt.part.3
                0x000000000000c91e       0x70 C:\Users\19156\Desktop\DualModeKeyboard\LIB\libCH57xBLE.a(l2cap_output.o)
 .text.l2capSendSegment
                0x000000000000c98e      0x108 C:\Users\19156\Desktop\DualModeKeyboard\LIB\libCH57xBLE.a(l2cap_output.o)
                0x000000000000c98e                l2capSendSegment
 .text.l2capSendNextSegment
                0x000000000000ca96       0xb4 C:\Users\19156\Desktop\DualModeKeyboard\LIB\libCH57xBLE.a(l2cap_output.o)
                0x000000000000ca96                l2capSendNextSegment
 .text.l2capSendPkt
                0x000000000000cb4a       0x3a C:\Users\19156\Desktop\DualModeKeyboard\LIB\libCH57xBLE.a(l2cap_output.o)
                0x000000000000cb4a                l2capSendPkt
 .text.L2CAP_SendData
                0x000000000000cb84       0x82 C:\Users\19156\Desktop\DualModeKeyboard\LIB\libCH57xBLE.a(l2cap_output.o)
                0x000000000000cb84                L2CAP_SendData
 .text.l2capSendCmd
                0x000000000000cc06       0x8a C:\Users\19156\Desktop\DualModeKeyboard\LIB\libCH57xBLE.a(l2cap_output.o)
                0x000000000000cc06                l2capSendCmd
 .text.l2capSendReq
                0x000000000000cc90       0xbc C:\Users\19156\Desktop\DualModeKeyboard\LIB\libCH57xBLE.a(l2cap_output.o)
                0x000000000000cc90                l2capSendReq
 .text.l2capBuildDisconnectReq
                0x000000000000cd4c       0x28 C:\Users\19156\Desktop\DualModeKeyboard\LIB\libCH57xBLE.a(l2cap_sdu.o)
 .text.l2capBuildParamUpdateReq
                0x000000000000cd74       0x4c C:\Users\19156\Desktop\DualModeKeyboard\LIB\libCH57xBLE.a(l2cap_sdu.o)
 .text.l2capBuildParamUpdateRsp
                0x000000000000cdc0       0x16 C:\Users\19156\Desktop\DualModeKeyboard\LIB\libCH57xBLE.a(l2cap_sdu.o)
 .text.l2capBuildConnectRsp
                0x000000000000cdd6       0x5e C:\Users\19156\Desktop\DualModeKeyboard\LIB\libCH57xBLE.a(l2cap_sdu.o)
 .text.l2capBuildCmdReject
                0x000000000000ce34       0x62 C:\Users\19156\Desktop\DualModeKeyboard\LIB\libCH57xBLE.a(l2cap_sdu.o)
                0x000000000000ce34                l2capBuildCmdReject
 .text.l2capBuildDisconnectRsp
                0x000000000000ce96       0x28 C:\Users\19156\Desktop\DualModeKeyboard\LIB\libCH57xBLE.a(l2cap_sdu.o)
                0x000000000000ce96                l2capBuildDisconnectRsp
 .text.l2capSendConnectRsp
                0x000000000000cebe       0xa2 C:\Users\19156\Desktop\DualModeKeyboard\LIB\libCH57xBLE.a(l2cap_sdu.o)
                0x000000000000cebe                l2capSendConnectRsp
 .text.L2CAP_CmdReject
                0x000000000000cf60       0x12 C:\Users\19156\Desktop\DualModeKeyboard\LIB\libCH57xBLE.a(l2cap_sdu.o)
                0x000000000000cf60                L2CAP_CmdReject
 .text.L2CAP_DisconnectReq
                0x000000000000cf72       0x2a C:\Users\19156\Desktop\DualModeKeyboard\LIB\libCH57xBLE.a(l2cap_sdu.o)
                0x000000000000cf72                L2CAP_DisconnectReq
 .text.L2CAP_ConnParamUpdateReq
                0x000000000000cf9c       0x16 C:\Users\19156\Desktop\DualModeKeyboard\LIB\libCH57xBLE.a(l2cap_sdu.o)
                0x000000000000cf9c                L2CAP_ConnParamUpdateReq
 .text.L2CAP_ConnParamUpdateRsp
                0x000000000000cfb2       0x12 C:\Users\19156\Desktop\DualModeKeyboard\LIB\libCH57xBLE.a(l2cap_sdu.o)
                0x000000000000cfb2                L2CAP_ConnParamUpdateRsp
 .text.reportStatusChange
                0x000000000000cfc4       0x3e C:\Users\19156\Desktop\DualModeKeyboard\LIB\libCH57xBLE.a(linkdb.o)
 .text.linkDB_Init
                0x000000000000d002       0x88 C:\Users\19156\Desktop\DualModeKeyboard\LIB\libCH57xBLE.a(linkdb.o)
                0x000000000000d002                linkDB_Init
 .text.linkDB_Find
                0x000000000000d08a       0x2c C:\Users\19156\Desktop\DualModeKeyboard\LIB\libCH57xBLE.a(linkdb.o)
                0x000000000000d08a                linkDB_Find
 .text.linkDB_Authen
                0x000000000000d0b6       0x5c C:\Users\19156\Desktop\DualModeKeyboard\LIB\libCH57xBLE.a(linkdb.o)
                0x000000000000d0b6                linkDB_Authen
 .text.linkDB_FindByAddr
                0x000000000000d112       0x76 C:\Users\19156\Desktop\DualModeKeyboard\LIB\libCH57xBLE.a(linkdb.o)
                0x000000000000d112                linkDB_FindByAddr
 .text.linkDB_FindFirst
                0x000000000000d188       0x38 C:\Users\19156\Desktop\DualModeKeyboard\LIB\libCH57xBLE.a(linkdb.o)
                0x000000000000d188                linkDB_FindFirst
 .text.linkDB_MTU
                0x000000000000d1c0       0x18 C:\Users\19156\Desktop\DualModeKeyboard\LIB\libCH57xBLE.a(linkdb.o)
                0x000000000000d1c0                linkDB_MTU
 .text.linkDB_NumActive
                0x000000000000d1d8       0x2e C:\Users\19156\Desktop\DualModeKeyboard\LIB\libCH57xBLE.a(linkdb.o)
                0x000000000000d1d8                linkDB_NumActive
 .text.linkDB_NumConns
                0x000000000000d206        0x6 C:\Users\19156\Desktop\DualModeKeyboard\LIB\libCH57xBLE.a(linkdb.o)
                0x000000000000d206                linkDB_NumConns
 .text.linkDB_Register
                0x000000000000d20c       0x28 C:\Users\19156\Desktop\DualModeKeyboard\LIB\libCH57xBLE.a(linkdb.o)
                0x000000000000d20c                linkDB_Register
 .text.linkDB_Remove
                0x000000000000d234       0x48 C:\Users\19156\Desktop\DualModeKeyboard\LIB\libCH57xBLE.a(linkdb.o)
                0x000000000000d234                linkDB_Remove
 .text.linkDB_Role
                0x000000000000d27c       0x18 C:\Users\19156\Desktop\DualModeKeyboard\LIB\libCH57xBLE.a(linkdb.o)
                0x000000000000d27c                linkDB_Role
 .text.linkDB_State
                0x000000000000d294       0x30 C:\Users\19156\Desktop\DualModeKeyboard\LIB\libCH57xBLE.a(linkdb.o)
                0x000000000000d294                linkDB_State
 .text.linkDB_UpdateMTU
                0x000000000000d2c4       0x28 C:\Users\19156\Desktop\DualModeKeyboard\LIB\libCH57xBLE.a(linkdb.o)
                0x000000000000d2c4                linkDB_UpdateMTU
 .text.linkDB_PerformFunc
                0x000000000000d2ec       0x52 C:\Users\19156\Desktop\DualModeKeyboard\LIB\libCH57xBLE.a(linkdb.o)
                0x000000000000d2ec                linkDB_PerformFunc
 .text.linkDB_PeripheralLinkNum
                0x000000000000d33e       0x3e C:\Users\19156\Desktop\DualModeKeyboard\LIB\libCH57xBLE.a(linkdb.o)
                0x000000000000d33e                linkDB_PeripheralLinkNum
 .text.linkDB_GetSMEvtID
                0x000000000000d37c       0x58 C:\Users\19156\Desktop\DualModeKeyboard\LIB\libCH57xBLE.a(linkdb.o)
                0x000000000000d37c                linkDB_GetSMEvtID
 .text.linkDB_Add
                0x000000000000d3d4       0xb2 C:\Users\19156\Desktop\DualModeKeyboard\LIB\libCH57xBLE.a(linkdb.o)
                0x000000000000d3d4                linkDB_Add
 .text.linkDB_GetHandleFromSMEvtID
                0x000000000000d486       0x32 C:\Users\19156\Desktop\DualModeKeyboard\LIB\libCH57xBLE.a(linkdb.o)
                0x000000000000d486                linkDB_GetHandleFromSMEvtID
 .text.linkDB_GetPairingParam
                0x000000000000d4b8       0x54 C:\Users\19156\Desktop\DualModeKeyboard\LIB\libCH57xBLE.a(linkdb.o)
                0x000000000000d4b8                linkDB_GetPairingParam
 .text.linkDB_NeedSendKey
                0x000000000000d50c       0x42 C:\Users\19156\Desktop\DualModeKeyboard\LIB\libCH57xBLE.a(linkdb.o)
                0x000000000000d50c                linkDB_NeedSendKey
 .text.smpBuildPairingFailed
                0x000000000000d54e       0x1a C:\Users\19156\Desktop\DualModeKeyboard\LIB\libCH57xBLE.a(sm.o)
                0x000000000000d54e                smpBuildPairingFailed
 .text.SM_StartEncryption
                0x000000000000d568       0x98 C:\Users\19156\Desktop\DualModeKeyboard\LIB\libCH57xBLE.a(sm.o)
                0x000000000000d568                SM_StartEncryption
 .text.smpBuildEncInfo
                0x000000000000d600       0x30 C:\Users\19156\Desktop\DualModeKeyboard\LIB\libCH57xBLE.a(sm.o)
                0x000000000000d600                smpBuildEncInfo
 .text.smpBuildIdentityAddrInfo
                0x000000000000d630       0x3a C:\Users\19156\Desktop\DualModeKeyboard\LIB\libCH57xBLE.a(sm.o)
                0x000000000000d630                smpBuildIdentityAddrInfo
 .text.smpBuildIdentityInfo
                0x000000000000d66a       0x30 C:\Users\19156\Desktop\DualModeKeyboard\LIB\libCH57xBLE.a(sm.o)
                0x000000000000d66a                smpBuildIdentityInfo
 .text.smpBuildMasterID
                0x000000000000d69a       0x44 C:\Users\19156\Desktop\DualModeKeyboard\LIB\libCH57xBLE.a(sm.o)
                0x000000000000d69a                smpBuildMasterID
 .text.smpBuildPairingConfirm
                0x000000000000d6de       0x30 C:\Users\19156\Desktop\DualModeKeyboard\LIB\libCH57xBLE.a(sm.o)
                0x000000000000d6de                smpBuildPairingConfirm
 .text.smpBuildPairingRandom
                0x000000000000d70e       0x30 C:\Users\19156\Desktop\DualModeKeyboard\LIB\libCH57xBLE.a(sm.o)
                0x000000000000d70e                smpBuildPairingRandom
 .text.smpBuildSigningInfo
                0x000000000000d73e       0x30 C:\Users\19156\Desktop\DualModeKeyboard\LIB\libCH57xBLE.a(sm.o)
                0x000000000000d73e                smpBuildSigningInfo
 .text.SM_ParamInit
                0x000000000000d76e       0x5a C:\Users\19156\Desktop\DualModeKeyboard\LIB\libCH57xBLE.a(sm.o)
                0x000000000000d76e                SM_ParamInit
 .text.smDetermineKeySize
                0x000000000000d7c8       0x20 C:\Users\19156\Desktop\DualModeKeyboard\LIB\libCH57xBLE.a(sm.o)
                0x000000000000d7c8                smDetermineKeySize
 .text.smProcessRandComplete
                0x000000000000d7e8       0x9e C:\Users\19156\Desktop\DualModeKeyboard\LIB\libCH57xBLE.a(sm.o)
                0x000000000000d7e8                smProcessRandComplete
 .text.smSavePairInfo
                0x000000000000d886      0x186 C:\Users\19156\Desktop\DualModeKeyboard\LIB\libCH57xBLE.a(sm.o)
                0x000000000000d886                smSavePairInfo
 .text.smSetPairingReqRsp
                0x000000000000da0c       0x38 C:\Users\19156\Desktop\DualModeKeyboard\LIB\libCH57xBLE.a(sm.o)
                0x000000000000da0c                smSetPairingReqRsp
 .text.smStartEncryption
                0x000000000000da44       0x16 C:\Users\19156\Desktop\DualModeKeyboard\LIB\libCH57xBLE.a(sm.o)
                0x000000000000da44                smStartEncryption
 .text.smStartRspTimer
                0x000000000000da5a       0x36 C:\Users\19156\Desktop\DualModeKeyboard\LIB\libCH57xBLE.a(sm.o)
                0x000000000000da5a                smStartRspTimer
 .text.smSendSMMsg
                0x000000000000da90       0x5c C:\Users\19156\Desktop\DualModeKeyboard\LIB\libCH57xBLE.a(sm.o)
                0x000000000000da90                smSendSMMsg
 .text.smGenerateConfirm
                0x000000000000daec       0x34 C:\Users\19156\Desktop\DualModeKeyboard\LIB\libCH57xBLE.a(sm.o)
                0x000000000000daec                smGenerateConfirm
 .text.smGenerateRandMsg
                0x000000000000db20       0x34 C:\Users\19156\Desktop\DualModeKeyboard\LIB\libCH57xBLE.a(sm.o)
                0x000000000000db20                smGenerateRandMsg
 .text.smPairingSendEncInfo
                0x000000000000db54       0x10 C:\Users\19156\Desktop\DualModeKeyboard\LIB\libCH57xBLE.a(sm.o)
                0x000000000000db54                smPairingSendEncInfo
 .text.smPairingSendIdentityAddrInfo
                0x000000000000db64       0x38 C:\Users\19156\Desktop\DualModeKeyboard\LIB\libCH57xBLE.a(sm.o)
                0x000000000000db64                smPairingSendIdentityAddrInfo
 .text.smPairingSendIdentityInfo
                0x000000000000db9c       0x10 C:\Users\19156\Desktop\DualModeKeyboard\LIB\libCH57xBLE.a(sm.o)
                0x000000000000db9c                smPairingSendIdentityInfo
 .text.smPairingSendMasterID
                0x000000000000dbac       0x38 C:\Users\19156\Desktop\DualModeKeyboard\LIB\libCH57xBLE.a(sm.o)
                0x000000000000dbac                smPairingSendMasterID
 .text.smPairingSendSingingInfo
                0x000000000000dbe4       0x10 C:\Users\19156\Desktop\DualModeKeyboard\LIB\libCH57xBLE.a(sm.o)
                0x000000000000dbe4                smPairingSendSingingInfo
 .text.smInitiatorSendNextKeyInfo
                0x000000000000dbf4      0x1c2 C:\Users\19156\Desktop\DualModeKeyboard\LIB\libCH57xBLE.a(sm.o)
                0x000000000000dbf4                smInitiatorSendNextKeyInfo
 .text.smResponderSendNextKeyInfo
                0x000000000000ddb6      0x216 C:\Users\19156\Desktop\DualModeKeyboard\LIB\libCH57xBLE.a(sm.o)
                0x000000000000ddb6                smResponderSendNextKeyInfo
 .text.smGeneratePairingReqRsp
                0x000000000000dfcc       0x3e C:\Users\19156\Desktop\DualModeKeyboard\LIB\libCH57xBLE.a(sm.o)
                0x000000000000dfcc                smGeneratePairingReqRsp
 .text.smStopRspTimer
                0x000000000000e00a        0xa C:\Users\19156\Desktop\DualModeKeyboard\LIB\libCH57xBLE.a(sm.o)
                0x000000000000e00a                smStopRspTimer
 .text.smFreePairingParams
                0x000000000000e014       0x68 C:\Users\19156\Desktop\DualModeKeyboard\LIB\libCH57xBLE.a(sm.o)
                0x000000000000e014                smFreePairingParams
 .text.smEndPairing
                0x000000000000e07c       0x5c C:\Users\19156\Desktop\DualModeKeyboard\LIB\libCH57xBLE.a(sm.o)
                0x000000000000e07c                smEndPairing
 .text.setupInitiatorKeys
                0x000000000000e0d8       0x82 C:\Users\19156\Desktop\DualModeKeyboard\LIB\libCH57xBLE.a(sm.o)
                0x000000000000e0d8                setupInitiatorKeys
 .text.smNextPairingState
                0x000000000000e15a       0x56 C:\Users\19156\Desktop\DualModeKeyboard\LIB\libCH57xBLE.a(sm.o)
                0x000000000000e15a                smNextPairingState
 .text.smProcessEncryptChange
                0x000000000000e1b0       0xde C:\Users\19156\Desktop\DualModeKeyboard\LIB\libCH57xBLE.a(sm.o)
                0x000000000000e1b0                smProcessEncryptChange
 .text.smSendFailAndEnd
                0x000000000000e28e       0x38 C:\Users\19156\Desktop\DualModeKeyboard\LIB\libCH57xBLE.a(sm.o)
                0x000000000000e28e                smSendFailAndEnd
 .text.smProcessPairingReq
                0x000000000000e2c6       0x3c C:\Users\19156\Desktop\DualModeKeyboard\LIB\libCH57xBLE.a(sm.o)
                0x000000000000e2c6                smProcessPairingReq
 .text.smLinkCheck
                0x000000000000e302       0x34 C:\Users\19156\Desktop\DualModeKeyboard\LIB\libCH57xBLE.a(sm.o)
                0x000000000000e302                smLinkCheck
 .text.smTimedOut
                0x000000000000e336       0x20 C:\Users\19156\Desktop\DualModeKeyboard\LIB\libCH57xBLE.a(sm.o)
                0x000000000000e336                smTimedOut
 .text.smUint8ToAuthReq
                0x000000000000e356        0x6 C:\Users\19156\Desktop\DualModeKeyboard\LIB\libCH57xBLE.a(sm.o)
                0x000000000000e356                smUint8ToAuthReq
 .text.sm_ah    0x000000000000e35c       0x80 C:\Users\19156\Desktop\DualModeKeyboard\LIB\libCH57xBLE.a(sm.o)
                0x000000000000e35c                sm_ah
 .text.sm_xor   0x000000000000e3dc       0x24 C:\Users\19156\Desktop\DualModeKeyboard\LIB\libCH57xBLE.a(sm.o)
                0x000000000000e3dc                sm_xor
 .text.sm_c1new
                0x000000000000e400      0x11c C:\Users\19156\Desktop\DualModeKeyboard\LIB\libCH57xBLE.a(sm.o)
                0x000000000000e400                sm_c1new
 .text.sm_s1    0x000000000000e51c       0x86 C:\Users\19156\Desktop\DualModeKeyboard\LIB\libCH57xBLE.a(sm.o)
                0x000000000000e51c                sm_s1
 .text.smResponderProcessLTKReq
                0x000000000000e5a2      0x1e6 C:\Users\19156\Desktop\DualModeKeyboard\LIB\libCH57xBLE.a(sm.o)
                0x000000000000e5a2                smResponderProcessLTKReq
 .text.xor_128  0x000000000000e788       0x28 C:\Users\19156\Desktop\DualModeKeyboard\LIB\libCH57xBLE.a(sm.o)
                0x000000000000e788                xor_128
 .text.leftshift_onebit
                0x000000000000e7b0       0x2e C:\Users\19156\Desktop\DualModeKeyboard\LIB\libCH57xBLE.a(sm.o)
                0x000000000000e7b0                leftshift_onebit
 .text.padding  0x000000000000e7de       0x38 C:\Users\19156\Desktop\DualModeKeyboard\LIB\libCH57xBLE.a(sm.o)
                0x000000000000e7de                padding
 .text.generate_subkey
                0x000000000000e816       0xd0 C:\Users\19156\Desktop\DualModeKeyboard\LIB\libCH57xBLE.a(sm.o)
                0x000000000000e816                generate_subkey
 .text.sm_CMAC  0x000000000000e8e6      0x16e C:\Users\19156\Desktop\DualModeKeyboard\LIB\libCH57xBLE.a(sm.o)
                0x000000000000e8e6                sm_CMAC
 .text.smpBuildPairingReqRsp
                0x000000000000ea54       0xc6 C:\Users\19156\Desktop\DualModeKeyboard\LIB\libCH57xBLE.a(sm.o)
                0x000000000000ea54                smpBuildPairingReqRsp
 .text.smpBuildPairingReq
                0x000000000000eb1a        0xa C:\Users\19156\Desktop\DualModeKeyboard\LIB\libCH57xBLE.a(sm.o)
                0x000000000000eb1a                smpBuildPairingReq
 .text.smpBuildPairingRsp
                0x000000000000eb24        0xa C:\Users\19156\Desktop\DualModeKeyboard\LIB\libCH57xBLE.a(sm.o)
                0x000000000000eb24                smpBuildPairingRsp
 .text.sm_c1    0x000000000000eb2e       0xb4 C:\Users\19156\Desktop\DualModeKeyboard\LIB\libCH57xBLE.a(sm.o)
                0x000000000000eb2e                sm_c1
 .text.smpBuildSecurityReq
                0x000000000000ebe2       0x1a C:\Users\19156\Desktop\DualModeKeyboard\LIB\libCH57xBLE.a(sm.o)
                0x000000000000ebe2                smpBuildSecurityReq
 .text.smpInitiatorProcessPairingRsp
                0x000000000000ebfc      0x116 C:\Users\19156\Desktop\DualModeKeyboard\LIB\libCH57xBLE.a(sm.o)
                0x000000000000ebfc                smpInitiatorProcessPairingRsp
 .text.smpInitiatorProcessIncoming
                0x000000000000ed12      0x23e C:\Users\19156\Desktop\DualModeKeyboard\LIB\libCH57xBLE.a(sm.o)
                0x000000000000ed12                smpInitiatorProcessIncoming
 .text.smpParseEncInfo
                0x000000000000ef50       0x2a C:\Users\19156\Desktop\DualModeKeyboard\LIB\libCH57xBLE.a(sm.o)
                0x000000000000ef50                smpParseEncInfo
 .text.smpParseIdentityAddrInfo
                0x000000000000ef7a       0x34 C:\Users\19156\Desktop\DualModeKeyboard\LIB\libCH57xBLE.a(sm.o)
                0x000000000000ef7a                smpParseIdentityAddrInfo
 .text.smpParseIdentityInfo
                0x000000000000efae       0x2a C:\Users\19156\Desktop\DualModeKeyboard\LIB\libCH57xBLE.a(sm.o)
                0x000000000000efae                smpParseIdentityInfo
 .text.smpParseMasterID
                0x000000000000efd8       0x3c C:\Users\19156\Desktop\DualModeKeyboard\LIB\libCH57xBLE.a(sm.o)
                0x000000000000efd8                smpParseMasterID
 .text.smpParsePairingConfirm
                0x000000000000f014       0x2a C:\Users\19156\Desktop\DualModeKeyboard\LIB\libCH57xBLE.a(sm.o)
                0x000000000000f014                smpParsePairingConfirm
 .text.smpParsePairingFailed
                0x000000000000f03e       0x22 C:\Users\19156\Desktop\DualModeKeyboard\LIB\libCH57xBLE.a(sm.o)
                0x000000000000f03e                smpParsePairingFailed
 .text.smpParsePairingRandom
                0x000000000000f060       0x2a C:\Users\19156\Desktop\DualModeKeyboard\LIB\libCH57xBLE.a(sm.o)
                0x000000000000f060                smpParsePairingRandom
 .text.smpParsePairingReq
                0x000000000000f08a      0x118 C:\Users\19156\Desktop\DualModeKeyboard\LIB\libCH57xBLE.a(sm.o)
                0x000000000000f08a                smpParsePairingReq
 .text.smpParseSigningInfo
                0x000000000000f1a2       0x2a C:\Users\19156\Desktop\DualModeKeyboard\LIB\libCH57xBLE.a(sm.o)
                0x000000000000f1a2                smpParseSigningInfo
 .text.smProcessDataMsg
                0x000000000000f1cc       0xec C:\Users\19156\Desktop\DualModeKeyboard\LIB\libCH57xBLE.a(sm.o)
                0x000000000000f1cc                smProcessDataMsg
 .text.smProcessTMOSMsg
                0x000000000000f2b8       0xd4 C:\Users\19156\Desktop\DualModeKeyboard\LIB\libCH57xBLE.a(sm.o)
                0x000000000000f2b8                smProcessTMOSMsg
 .text.smpResponderProcessPairingReq
                0x000000000000f38c       0xd6 C:\Users\19156\Desktop\DualModeKeyboard\LIB\libCH57xBLE.a(sm.o)
                0x000000000000f38c                smpResponderProcessPairingReq
 .text.smpResponderProcessIncoming
                0x000000000000f462      0x24c C:\Users\19156\Desktop\DualModeKeyboard\LIB\libCH57xBLE.a(sm.o)
                0x000000000000f462                smpResponderProcessIncoming
 .text.SM_CalcRandomAddr
                0x000000000000f6ae       0x54 C:\Users\19156\Desktop\DualModeKeyboard\LIB\libCH57xBLE.a(sm.o)
                0x000000000000f6ae                SM_CalcRandomAddr
 .text.SM_GenerateAuthenSig
                0x000000000000f702       0xda C:\Users\19156\Desktop\DualModeKeyboard\LIB\libCH57xBLE.a(sm.o)
                0x000000000000f702                SM_GenerateAuthenSig
 .text.SM_Init  0x000000000000f7dc       0x26 C:\Users\19156\Desktop\DualModeKeyboard\LIB\libCH57xBLE.a(sm.o)
                0x000000000000f7dc                SM_Init
 .text.SM_InitiatorInit
                0x000000000000f802       0x1a C:\Users\19156\Desktop\DualModeKeyboard\LIB\libCH57xBLE.a(sm.o)
                0x000000000000f802                SM_InitiatorInit
 .text.SM_PasskeyUpdate
                0x000000000000f81c       0xc8 C:\Users\19156\Desktop\DualModeKeyboard\LIB\libCH57xBLE.a(sm.o)
                0x000000000000f81c                SM_PasskeyUpdate
 .text.SM_ProcessEvent
                0x000000000000f8e4       0x9e C:\Users\19156\Desktop\DualModeKeyboard\LIB\libCH57xBLE.a(sm.o)
                0x000000000000f8e4                SM_ProcessEvent
 .text.SM_ResolveRandomAddrs
                0x000000000000f982       0x5a C:\Users\19156\Desktop\DualModeKeyboard\LIB\libCH57xBLE.a(sm.o)
                0x000000000000f982                SM_ResolveRandomAddrs
 .text.SM_ResponderInit
                0x000000000000f9dc       0x1a C:\Users\19156\Desktop\DualModeKeyboard\LIB\libCH57xBLE.a(sm.o)
                0x000000000000f9dc                SM_ResponderInit
 .text.SM_StartPairing
                0x000000000000f9f6       0xcc C:\Users\19156\Desktop\DualModeKeyboard\LIB\libCH57xBLE.a(sm.o)
                0x000000000000f9f6                SM_StartPairing
 .text.SM_VerifyAuthenSig
                0x000000000000fac2      0x138 C:\Users\19156\Desktop\DualModeKeyboard\LIB\libCH57xBLE.a(sm.o)
                0x000000000000fac2                SM_VerifyAuthenSig
 .text.HOST_LE_ConnectionCompleteEvent
                0x000000000000fbfa       0xc2 C:\Users\19156\Desktop\DualModeKeyboard\LIB\libCH57xBLE.a(host_input.o)
                0x000000000000fbfa                HOST_LE_ConnectionCompleteEvent
 .text.HOST_LE_ConnectionUpdateCompleteEvent
                0x000000000000fcbc       0x5c C:\Users\19156\Desktop\DualModeKeyboard\LIB\libCH57xBLE.a(host_input.o)
                0x000000000000fcbc                HOST_LE_ConnectionUpdateCompleteEvent
 .text.HOST_LE_ReadRemoteUsedFeaturesCompleteEvent
                0x000000000000fd18       0x62 C:\Users\19156\Desktop\DualModeKeyboard\LIB\libCH57xBLE.a(host_input.o)
                0x000000000000fd18                HOST_LE_ReadRemoteUsedFeaturesCompleteEvent
 .text.HOST_LE_LongTermKeyRequestEvent
                0x000000000000fd7a       0x60 C:\Users\19156\Desktop\DualModeKeyboard\LIB\libCH57xBLE.a(host_input.o)
                0x000000000000fd7a                HOST_LE_LongTermKeyRequestEvent
 .text.HOST_LE_RemoteConnectionParameterRequestEvent
                0x000000000000fdda       0x5c C:\Users\19156\Desktop\DualModeKeyboard\LIB\libCH57xBLE.a(host_input.o)
                0x000000000000fdda                HOST_LE_RemoteConnectionParameterRequestEvent
 .text.HOST_RemoteConnectionParameterRequestEvent
                0x000000000000fe36       0x42 C:\Users\19156\Desktop\DualModeKeyboard\LIB\libCH57xBLE.a(host_input.o)
                0x000000000000fe36                HOST_RemoteConnectionParameterRequestEvent
 .text.HOST_LE_DataLengthChangeEvent
                0x000000000000fe78       0x5c C:\Users\19156\Desktop\DualModeKeyboard\LIB\libCH57xBLE.a(host_input.o)
                0x000000000000fe78                HOST_LE_DataLengthChangeEvent
 .text.HOST_LE_EnhancedConnectionCompleteEvent
                0x000000000000fed4      0x118 C:\Users\19156\Desktop\DualModeKeyboard\LIB\libCH57xBLE.a(host_input.o)
                0x000000000000fed4                HOST_LE_EnhancedConnectionCompleteEvent
 .text.HOST_DisconnectionCompleteEvent
                0x000000000000ffec       0x44 C:\Users\19156\Desktop\DualModeKeyboard\LIB\libCH57xBLE.a(host_input.o)
                0x000000000000ffec                HOST_DisconnectionCompleteEvent
 .text.HOST_EncryptionChangeEvent
                0x0000000000010030       0x4c C:\Users\19156\Desktop\DualModeKeyboard\LIB\libCH57xBLE.a(host_input.o)
                0x0000000000010030                HOST_EncryptionChangeEvent
 .text.HOST_ReadRemoteVersionInfoEvent
                0x000000000001007c       0x56 C:\Users\19156\Desktop\DualModeKeyboard\LIB\libCH57xBLE.a(host_input.o)
                0x000000000001007c                HOST_ReadRemoteVersionInfoEvent
 .text.HOST_CommandCompleteEvent
                0x00000000000100d2       0x5e C:\Users\19156\Desktop\DualModeKeyboard\LIB\libCH57xBLE.a(host_input.o)
                0x00000000000100d2                HOST_CommandCompleteEvent
 .text.HOST_CommandStatusEvent
                0x0000000000010130       0x44 C:\Users\19156\Desktop\DualModeKeyboard\LIB\libCH57xBLE.a(host_input.o)
                0x0000000000010130                HOST_CommandStatusEvent
 .text.HOST_DataBufferOverflowEvent
                0x0000000000010174       0x3a C:\Users\19156\Desktop\DualModeKeyboard\LIB\libCH57xBLE.a(host_input.o)
                0x0000000000010174                HOST_DataBufferOverflowEvent
 .text.HOST_EncryptionKeyRefreshCompleteEvent
                0x00000000000101ae       0x46 C:\Users\19156\Desktop\DualModeKeyboard\LIB\libCH57xBLE.a(host_input.o)
                0x00000000000101ae                HOST_EncryptionKeyRefreshCompleteEvent
 .text.HOST_NumberOfCompletedPacketsEvent
                0x00000000000101f4       0x40 C:\Users\19156\Desktop\DualModeKeyboard\LIB\libCH57xBLE.a(host_input.o)
                0x00000000000101f4                HOST_NumberOfCompletedPacketsEvent
 .text.HOST_RecvDataPackets
                0x0000000000010234      0x1c6 C:\Users\19156\Desktop\DualModeKeyboard\LIB\libCH57xBLE.a(host_input.o)
                0x0000000000010234                HOST_RecvDataPackets
 .text.HCI_DisconnectCmd
                0x00000000000103fa        0x4 C:\Users\19156\Desktop\DualModeKeyboard\LIB\libCH57xBLE.a(host_output.o)
                0x00000000000103fa                HCI_DisconnectCmd
 .text.HCI_MB_DisconnectCmd
                0x00000000000103fe        0x4 C:\Users\19156\Desktop\DualModeKeyboard\LIB\libCH57xBLE.a(host_output.o)
                0x00000000000103fe                HCI_MB_DisconnectCmd
 .text.HCI_HostNumCompletedPktCmd
                0x0000000000010402       0x10 C:\Users\19156\Desktop\DualModeKeyboard\LIB\libCH57xBLE.a(host_output.o)
                0x0000000000010402                HCI_HostNumCompletedPktCmd
 .text.HCI_ReadBDADDRCmd
                0x0000000000010412        0x4 C:\Users\19156\Desktop\DualModeKeyboard\LIB\libCH57xBLE.a(host_output.o)
                0x0000000000010412                HCI_ReadBDADDRCmd
 .text.HCI_LE_ReadBufSizeCmd
                0x0000000000010416        0x4 C:\Users\19156\Desktop\DualModeKeyboard\LIB\libCH57xBLE.a(host_output.o)
                0x0000000000010416                HCI_LE_ReadBufSizeCmd
 .text.HCI_LE_SetRandomAddressCmd
                0x000000000001041a        0x4 C:\Users\19156\Desktop\DualModeKeyboard\LIB\libCH57xBLE.a(host_output.o)
                0x000000000001041a                HCI_LE_SetRandomAddressCmd
 .text.HCI_LE_SetAdvParamCmd
                0x000000000001041e        0x4 C:\Users\19156\Desktop\DualModeKeyboard\LIB\libCH57xBLE.a(host_output.o)
                0x000000000001041e                HCI_LE_SetAdvParamCmd
 .text.HCI_LE_SetAdvDataCmd
                0x0000000000010422        0x4 C:\Users\19156\Desktop\DualModeKeyboard\LIB\libCH57xBLE.a(host_output.o)
                0x0000000000010422                HCI_LE_SetAdvDataCmd
 .text.HCI_LE_SetScanRspDataCmd
                0x0000000000010426        0x4 C:\Users\19156\Desktop\DualModeKeyboard\LIB\libCH57xBLE.a(host_output.o)
                0x0000000000010426                HCI_LE_SetScanRspDataCmd
 .text.HCI_LE_SetAdvEnableCmd
                0x000000000001042a        0x4 C:\Users\19156\Desktop\DualModeKeyboard\LIB\libCH57xBLE.a(host_output.o)
                0x000000000001042a                HCI_LE_SetAdvEnableCmd
 .text.HCI_LE_SetScanEnableCmd
                0x000000000001042e        0x4 C:\Users\19156\Desktop\DualModeKeyboard\LIB\libCH57xBLE.a(host_output.o)
                0x000000000001042e                HCI_LE_SetScanEnableCmd
 .text.HCI_LE_CreateConnCancelCmd
                0x0000000000010432        0x4 C:\Users\19156\Desktop\DualModeKeyboard\LIB\libCH57xBLE.a(host_output.o)
                0x0000000000010432                HCI_LE_CreateConnCancelCmd
 .text.HCI_LE_ClearWhiteListCmd
                0x0000000000010436        0x4 C:\Users\19156\Desktop\DualModeKeyboard\LIB\libCH57xBLE.a(host_output.o)
                0x0000000000010436                HCI_LE_ClearWhiteListCmd
 .text.HCI_LE_AddWhiteListCmd
                0x000000000001043a        0x4 C:\Users\19156\Desktop\DualModeKeyboard\LIB\libCH57xBLE.a(host_output.o)
                0x000000000001043a                HCI_LE_AddWhiteListCmd
 .text.HCI_LE_ConnUpdateCmd
                0x000000000001043e        0x4 C:\Users\19156\Desktop\DualModeKeyboard\LIB\libCH57xBLE.a(host_output.o)
                0x000000000001043e                HCI_LE_ConnUpdateCmd
 .text.HCI_LE_RandCmd
                0x0000000000010442        0x4 C:\Users\19156\Desktop\DualModeKeyboard\LIB\libCH57xBLE.a(host_output.o)
                0x0000000000010442                HCI_LE_RandCmd
 .text.HCI_LE_StartEncyptCmd
                0x0000000000010446       0x10 C:\Users\19156\Desktop\DualModeKeyboard\LIB\libCH57xBLE.a(host_output.o)
                0x0000000000010446                HCI_LE_StartEncyptCmd
 .text.HCI_LE_LtkReqReplyCmd
                0x0000000000010456        0x4 C:\Users\19156\Desktop\DualModeKeyboard\LIB\libCH57xBLE.a(host_output.o)
                0x0000000000010456                HCI_LE_LtkReqReplyCmd
 .text.HCI_LE_LtkReqNegReplyCmd
                0x000000000001045a        0x4 C:\Users\19156\Desktop\DualModeKeyboard\LIB\libCH57xBLE.a(host_output.o)
                0x000000000001045a                HCI_LE_LtkReqNegReplyCmd
 .text.HCI_LE_RemoteConnParamReqReplyCmd
                0x000000000001045e        0x4 C:\Users\19156\Desktop\DualModeKeyboard\LIB\libCH57xBLE.a(host_output.o)
                0x000000000001045e                HCI_LE_RemoteConnParamReqReplyCmd
 .text.HCI_LE_RemoteConnParamReqNegReplyCmd
                0x0000000000010462        0x4 C:\Users\19156\Desktop\DualModeKeyboard\LIB\libCH57xBLE.a(host_output.o)
                0x0000000000010462                HCI_LE_RemoteConnParamReqNegReplyCmd
 .text.HCI_LE_AddDeviceToResolvingList
                0x0000000000010466        0x4 C:\Users\19156\Desktop\DualModeKeyboard\LIB\libCH57xBLE.a(host_output.o)
                0x0000000000010466                HCI_LE_AddDeviceToResolvingList
 .text.HCI_LE_ClearResolvingList
                0x000000000001046a        0x4 C:\Users\19156\Desktop\DualModeKeyboard\LIB\libCH57xBLE.a(host_output.o)
                0x000000000001046a                HCI_LE_ClearResolvingList
 .text.HCI_LE_SetAddressResolvableEnableCmd
                0x000000000001046e        0x4 C:\Users\19156\Desktop\DualModeKeyboard\LIB\libCH57xBLE.a(host_output.o)
                0x000000000001046e                HCI_LE_SetAddressResolvableEnableCmd
 .text.HCI_LE_SetResolvableAddressTimeoutCmd
                0x0000000000010472        0x4 C:\Users\19156\Desktop\DualModeKeyboard\LIB\libCH57xBLE.a(host_output.o)
                0x0000000000010472                HCI_LE_SetResolvableAddressTimeoutCmd
 .text.HCI_SendDataPkt
                0x0000000000010476        0x4 C:\Users\19156\Desktop\DualModeKeyboard\LIB\libCH57xBLE.a(host_output.o)
                0x0000000000010476                HCI_SendDataPkt
 .text.HCI_ValidConnTimeParams
                0x000000000001047a       0x4c C:\Users\19156\Desktop\DualModeKeyboard\LIB\libCH57xBLE.a(host_output.o)
                0x000000000001047a                HCI_ValidConnTimeParams
 .text.ll_connect_auth_timeout
                0x00000000000104c6       0x16 C:\Users\19156\Desktop\DualModeKeyboard\LIB\libCH57xBLE.a(ll_connect.o)
                0x00000000000104c6                ll_connect_auth_timeout
 .text.ll_connect_set_auth_timeout
                0x00000000000104dc       0x56 C:\Users\19156\Desktop\DualModeKeyboard\LIB\libCH57xBLE.a(ll_connect.o)
                0x00000000000104dc                ll_connect_set_auth_timeout
 .text.ll_connect_set_procedure_timeout
                0x0000000000010532       0x3c C:\Users\19156\Desktop\DualModeKeyboard\LIB\libCH57xBLE.a(ll_connect.o)
                0x0000000000010532                ll_connect_set_procedure_timeout
 .text.ll_connect_set_connect_timeout
                0x000000000001056e       0x3c C:\Users\19156\Desktop\DualModeKeyboard\LIB\libCH57xBLE.a(ll_connect.o)
                0x000000000001056e                ll_connect_set_connect_timeout
 .text.ll_connect_init_dataLen
                0x00000000000105aa       0x56 C:\Users\19156\Desktop\DualModeKeyboard\LIB\libCH57xBLE.a(ll_connect.o)
                0x00000000000105aa                ll_connect_init_dataLen
 .text.ll_connect_init_pingOffset
                0x0000000000010600       0x2e C:\Users\19156\Desktop\DualModeKeyboard\LIB\libCH57xBLE.a(ll_connect.o)
                0x0000000000010600                ll_connect_init_pingOffset
 .text.ll_connect_parse_datapdu_head
                0x000000000001062e       0x34 C:\Users\19156\Desktop\DualModeKeyboard\LIB\libCH57xBLE.a(ll_connect.o)
                0x000000000001062e                ll_connect_parse_datapdu_head
 .text.ll_connect_send_data
                0x0000000000010662      0x106 C:\Users\19156\Desktop\DualModeKeyboard\LIB\libCH57xBLE.a(ll_connect.o)
                0x0000000000010662                ll_connect_send_data
 .text.ll_connect_flowcontrol_init
                0x0000000000010768        0xc C:\Users\19156\Desktop\DualModeKeyboard\LIB\libCH57xBLE.a(ll_connect.o)
                0x0000000000010768                ll_connect_flowcontrol_init
 .text.LL_ConnectFlowcontrolTx
                0x0000000000010774       0x28 C:\Users\19156\Desktop\DualModeKeyboard\LIB\libCH57xBLE.a(ll_connect.o)
                0x0000000000010774                LL_ConnectFlowcontrolTx
 .text.LL_ConnectFlowcontrolRx
                0x000000000001079c       0x28 C:\Users\19156\Desktop\DualModeKeyboard\LIB\libCH57xBLE.a(ll_connect.o)
                0x000000000001079c                LL_ConnectFlowcontrolRx
 .text.LL_ConnectTxPktnumIncrease
                0x00000000000107c4       0x50 C:\Users\19156\Desktop\DualModeKeyboard\LIB\libCH57xBLE.a(ll_connect.o)
                0x00000000000107c4                LL_ConnectTxPktnumIncrease
 .text.LL_ConnectRxPktnumIncrease
                0x0000000000010814       0x3e C:\Users\19156\Desktop\DualModeKeyboard\LIB\libCH57xBLE.a(ll_connect.o)
                0x0000000000010814                LL_ConnectRxPktnumIncrease
 .text.ll_connect_get_slave_number
                0x0000000000010852       0x20 C:\Users\19156\Desktop\DualModeKeyboard\LIB\libCH57xBLE.a(ll_connect.o)
                0x0000000000010852                ll_connect_get_slave_number
 .text.ll_connect_update_get_offset
                0x0000000000010872       0xa2 C:\Users\19156\Desktop\DualModeKeyboard\LIB\libCH57xBLE.a(ll_connect.o)
                0x0000000000010872                ll_connect_update_get_offset
 .text.ll_connect_get_update_point
                0x0000000000010914       0x80 C:\Users\19156\Desktop\DualModeKeyboard\LIB\libCH57xBLE.a(ll_connect.o)
                0x0000000000010914                ll_connect_get_update_point
 .text.ll_master_check_connect_point
                0x0000000000010994       0xf0 C:\Users\19156\Desktop\DualModeKeyboard\LIB\libCH57xBLE.a(ll_connect.o)
                0x0000000000010994                ll_master_check_connect_point
 .text.ll_slave_check_connect_point
                0x0000000000010a84      0x1c4 C:\Users\19156\Desktop\DualModeKeyboard\LIB\libCH57xBLE.a(ll_connect.o)
                0x0000000000010a84                ll_slave_check_connect_point
 .text.ll_connect_change_connect_point
                0x0000000000010c48      0x21c C:\Users\19156\Desktop\DualModeKeyboard\LIB\libCH57xBLE.a(ll_connect.o)
                0x0000000000010c48                ll_connect_change_connect_point
 .text.ll_connect_recv_data
                0x0000000000010e64       0xa0 C:\Users\19156\Desktop\DualModeKeyboard\LIB\libCH57xBLE.a(ll_connect.o)
                0x0000000000010e64                ll_connect_recv_data
 .text.LL_GetNextConnectEventTime
                0x0000000000010f04      0x12c C:\Users\19156\Desktop\DualModeKeyboard\LIB\libCH57xBLE.a(ll_connect.o)
                0x0000000000010f04                LL_GetNextConnectEventTime
 .text.LL_ConnectFreeTmosPrioritID
                0x0000000000011030       0xde C:\Users\19156\Desktop\DualModeKeyboard\LIB\libCH57xBLE.a(ll_connect.o)
                0x0000000000011030                LL_ConnectFreeTmosPrioritID
 .text.LL_ConnectToStandby
                0x000000000001110e       0x86 C:\Users\19156\Desktop\DualModeKeyboard\LIB\libCH57xBLE.a(ll_connect.o)
                0x000000000001110e                LL_ConnectToStandby
 .text.ll_connect_action_in_connintervaltimeout
                0x0000000000011194      0x348 C:\Users\19156\Desktop\DualModeKeyboard\LIB\libCH57xBLE.a(ll_connect.o)
                0x0000000000011194                ll_connect_action_in_connintervaltimeout
 .text.ll_connect_procedure_timeout
                0x00000000000114dc       0x2a C:\Users\19156\Desktop\DualModeKeyboard\LIB\libCH57xBLE.a(ll_connect.o)
                0x00000000000114dc                ll_connect_procedure_timeout
 .text.ll_connect_supervision_timeout
                0x0000000000011506       0x34 C:\Users\19156\Desktop\DualModeKeyboard\LIB\libCH57xBLE.a(ll_connect.o)
                0x0000000000011506                ll_connect_supervision_timeout
 .text.ll_connect_process_event
                0x000000000001153a      0x488 C:\Users\19156\Desktop\DualModeKeyboard\LIB\libCH57xBLE.a(ll_connect.o)
                0x000000000001153a                ll_connect_process_event
 .text.LL_ConnectShut
                0x00000000000119c2       0xe2 C:\Users\19156\Desktop\DualModeKeyboard\LIB\libCH57xBLE.a(ll_connect.o)
                0x00000000000119c2                LL_ConnectShut
 .text.LL_CoreGetCore
                0x0000000000011aa4       0x1c C:\Users\19156\Desktop\DualModeKeyboard\LIB\libCH57xBLE.a(ll_core.o)
                0x0000000000011aa4                LL_CoreGetCore
 .text.LL_CoreGetDataList
                0x0000000000011ac0       0x36 C:\Users\19156\Desktop\DualModeKeyboard\LIB\libCH57xBLE.a(ll_core.o)
                0x0000000000011ac0                LL_CoreGetDataList
 .text.LL_CoreDataListInit
                0x0000000000011af6       0xa0 C:\Users\19156\Desktop\DualModeKeyboard\LIB\libCH57xBLE.a(ll_core.o)
                0x0000000000011af6                LL_CoreDataListInit
 .text.LL_CoreOpen
                0x0000000000011b96       0xc6 C:\Users\19156\Desktop\DualModeKeyboard\LIB\libCH57xBLE.a(ll_core.o)
                0x0000000000011b96                LL_CoreOpen
 .text.LL_CoreDataListFree
                0x0000000000011c5c       0x30 C:\Users\19156\Desktop\DualModeKeyboard\LIB\libCH57xBLE.a(ll_core.o)
                0x0000000000011c5c                LL_CoreDataListFree
 .text.LL_CoreClose
                0x0000000000011c8c       0x8a C:\Users\19156\Desktop\DualModeKeyboard\LIB\libCH57xBLE.a(ll_core.o)
                0x0000000000011c8c                LL_CoreClose
 .text.LL_CoreInit
                0x0000000000011d16       0x10 C:\Users\19156\Desktop\DualModeKeyboard\LIB\libCH57xBLE.a(ll_core.o)
                0x0000000000011d16                LL_CoreInit
 .text.LL_HopGetChannel
                0x0000000000011d26       0xda C:\Users\19156\Desktop\DualModeKeyboard\LIB\libCH57xBLE.a(ll_hop.o)
                0x0000000000011d26                LL_HopGetChannel
 .text.LL_HopInit
                0x0000000000011e00        0x6 C:\Users\19156\Desktop\DualModeKeyboard\LIB\libCH57xBLE.a(ll_hop.o)
                0x0000000000011e00                LL_HopInit
 .text.ll_master_process_after_rx
                0x0000000000011e06      0x33a C:\Users\19156\Desktop\DualModeKeyboard\LIB\libCH57xBLE.a(ll_master.o)
 .text.ll_master_action_tx_ready
                0x0000000000012140      0x542 C:\Users\19156\Desktop\DualModeKeyboard\LIB\libCH57xBLE.a(ll_master.o)
                0x0000000000012140                ll_master_action_tx_ready
 .text.ll_master_process
                0x0000000000012682      0xa20 C:\Users\19156\Desktop\DualModeKeyboard\LIB\libCH57xBLE.a(ll_master.o)
                0x0000000000012682                ll_master_process
 .text.LL_ConnectionUpdateReq
                0x00000000000130a2       0xbc C:\Users\19156\Desktop\DualModeKeyboard\LIB\libCH57xBLE.a(ll_pdu.o)
                0x00000000000130a2                LL_ConnectionUpdateReq
 .text.LL_ChannelMapReq
                0x000000000001315e       0x68 C:\Users\19156\Desktop\DualModeKeyboard\LIB\libCH57xBLE.a(ll_pdu.o)
                0x000000000001315e                LL_ChannelMapReq
 .text.LL_TerminateInd
                0x00000000000131c6       0x34 C:\Users\19156\Desktop\DualModeKeyboard\LIB\libCH57xBLE.a(ll_pdu.o)
                0x00000000000131c6                LL_TerminateInd
 .text.LL_EncReq
                0x00000000000131fa       0x84 C:\Users\19156\Desktop\DualModeKeyboard\LIB\libCH57xBLE.a(ll_pdu.o)
                0x00000000000131fa                LL_EncReq
 .text.LL_EncRsp
                0x000000000001327e       0x58 C:\Users\19156\Desktop\DualModeKeyboard\LIB\libCH57xBLE.a(ll_pdu.o)
                0x000000000001327e                LL_EncRsp
 .text.LL_StartEncReq
                0x00000000000132d6       0x22 C:\Users\19156\Desktop\DualModeKeyboard\LIB\libCH57xBLE.a(ll_pdu.o)
                0x00000000000132d6                LL_StartEncReq
 .text.LL_StartEncRsp
                0x00000000000132f8       0x22 C:\Users\19156\Desktop\DualModeKeyboard\LIB\libCH57xBLE.a(ll_pdu.o)
                0x00000000000132f8                LL_StartEncRsp
 .text.LL_UnknowRsp
                0x000000000001331a       0x26 C:\Users\19156\Desktop\DualModeKeyboard\LIB\libCH57xBLE.a(ll_pdu.o)
                0x000000000001331a                LL_UnknowRsp
 .text.LL_FeatureReq
                0x0000000000013340       0x50 C:\Users\19156\Desktop\DualModeKeyboard\LIB\libCH57xBLE.a(ll_pdu.o)
                0x0000000000013340                LL_FeatureReq
 .text.LL_FeatureRsp
                0x0000000000013390       0x42 C:\Users\19156\Desktop\DualModeKeyboard\LIB\libCH57xBLE.a(ll_pdu.o)
                0x0000000000013390                LL_FeatureRsp
 .text.LL_PauseEncReq
                0x00000000000133d2       0x2e C:\Users\19156\Desktop\DualModeKeyboard\LIB\libCH57xBLE.a(ll_pdu.o)
                0x00000000000133d2                LL_PauseEncReq
 .text.LL_PauseEncRsp
                0x0000000000013400       0x22 C:\Users\19156\Desktop\DualModeKeyboard\LIB\libCH57xBLE.a(ll_pdu.o)
                0x0000000000013400                LL_PauseEncRsp
 .text.LL_VersionInd
                0x0000000000013422       0x8c C:\Users\19156\Desktop\DualModeKeyboard\LIB\libCH57xBLE.a(ll_pdu.o)
                0x0000000000013422                LL_VersionInd
 .text.LL_RejectInd
                0x00000000000134ae       0x26 C:\Users\19156\Desktop\DualModeKeyboard\LIB\libCH57xBLE.a(ll_pdu.o)
                0x00000000000134ae                LL_RejectInd
 .text.LL_SlaveFeatureReq
                0x00000000000134d4       0x50 C:\Users\19156\Desktop\DualModeKeyboard\LIB\libCH57xBLE.a(ll_pdu.o)
                0x00000000000134d4                LL_SlaveFeatureReq
 .text.LL_ConnectionParamReq
                0x0000000000013524       0xac C:\Users\19156\Desktop\DualModeKeyboard\LIB\libCH57xBLE.a(ll_pdu.o)
                0x0000000000013524                LL_ConnectionParamReq
 .text.LL_ConnectionParamRsp
                0x00000000000135d0       0xa0 C:\Users\19156\Desktop\DualModeKeyboard\LIB\libCH57xBLE.a(ll_pdu.o)
                0x00000000000135d0                LL_ConnectionParamRsp
 .text.LL_RejectIndExt
                0x0000000000013670       0x26 C:\Users\19156\Desktop\DualModeKeyboard\LIB\libCH57xBLE.a(ll_pdu.o)
                0x0000000000013670                LL_RejectIndExt
 .text.LL_PingReq
                0x0000000000013696       0x2e C:\Users\19156\Desktop\DualModeKeyboard\LIB\libCH57xBLE.a(ll_pdu.o)
                0x0000000000013696                LL_PingReq
 .text.LL_PingRsp
                0x00000000000136c4       0x1a C:\Users\19156\Desktop\DualModeKeyboard\LIB\libCH57xBLE.a(ll_pdu.o)
                0x00000000000136c4                LL_PingRsp
 .text.LL_LengthReq
                0x00000000000136de       0x66 C:\Users\19156\Desktop\DualModeKeyboard\LIB\libCH57xBLE.a(ll_pdu.o)
                0x00000000000136de                LL_LengthReq
 .text.LL_LengthRsp
                0x0000000000013744       0x52 C:\Users\19156\Desktop\DualModeKeyboard\LIB\libCH57xBLE.a(ll_pdu.o)
                0x0000000000013744                LL_LengthRsp
 .text.LL_SendAck
                0x0000000000013796       0x1c C:\Users\19156\Desktop\DualModeKeyboard\LIB\libCH57xBLE.a(ll_pdu.o)
                0x0000000000013796                LL_SendAck
 .text.LL_RxConnParamReq
                0x00000000000137b2       0xf8 C:\Users\19156\Desktop\DualModeKeyboard\LIB\libCH57xBLE.a(ll_pdu.o)
                0x00000000000137b2                LL_RxConnParamReq
 .text.LL_RxConnParamRsp
                0x00000000000138aa       0xd2 C:\Users\19156\Desktop\DualModeKeyboard\LIB\libCH57xBLE.a(ll_pdu.o)
                0x00000000000138aa                LL_RxConnParamRsp
 .text.LL_RxLenUpdate
                0x000000000001397c       0xb6 C:\Users\19156\Desktop\DualModeKeyboard\LIB\libCH57xBLE.a(ll_pdu.o)
                0x000000000001397c                LL_RxLenUpdate
 .text.LL_RxVersionExchange
                0x0000000000013a32       0x2e C:\Users\19156\Desktop\DualModeKeyboard\LIB\libCH57xBLE.a(ll_pdu.o)
                0x0000000000013a32                LL_RxVersionExchange
 .text.LL_ReportGenerateEvent
                0x0000000000013a60       0x42 C:\Users\19156\Desktop\DualModeKeyboard\LIB\libCH57xBLE.a(ll_report.o)
                0x0000000000013a60                LL_ReportGenerateEvent
 .text.LL_ProcessTMOSReportMsg
                0x0000000000013aa2      0x572 C:\Users\19156\Desktop\DualModeKeyboard\LIB\libCH57xBLE.a(ll_report.o)
                0x0000000000013aa2                LL_ProcessTMOSReportMsg
 .text.LL_ScanToStandby
                0x0000000000014014       0x9c C:\Users\19156\Desktop\DualModeKeyboard\LIB\libCH57xBLE.a(ll_scan.o)
                0x0000000000014014                LL_ScanToStandby
 .text.ll_slave_process_after_tx
                0x00000000000140b0      0x39c C:\Users\19156\Desktop\DualModeKeyboard\LIB\libCH57xBLE.a(ll_slave.o)
 .text.llSlaveCreateCore
                0x000000000001444c       0xf6 C:\Users\19156\Desktop\DualModeKeyboard\LIB\libCH57xBLE.a(ll_slave.o)
                0x000000000001444c                llSlaveCreateCore
 .text.llSlaveSetFirstTimer
                0x0000000000014542      0x1d2 C:\Users\19156\Desktop\DualModeKeyboard\LIB\libCH57xBLE.a(ll_slave.o)
 .text.ll_hw_timer_slave_recv_timeout
                0x0000000000014714       0x22 C:\Users\19156\Desktop\DualModeKeyboard\LIB\libCH57xBLE.a(ll_slave.o)
                0x0000000000014714                ll_hw_timer_slave_recv_timeout
 .text.ll_slave_process
                0x0000000000014736     0x1116 C:\Users\19156\Desktop\DualModeKeyboard\LIB\libCH57xBLE.a(ll_slave.o)
                0x0000000000014736                ll_slave_process
 .text.LL_SlaveEnalbe
                0x000000000001584c       0x2a C:\Users\19156\Desktop\DualModeKeyboard\LIB\libCH57xBLE.a(ll_slave.o)
                0x000000000001584c                LL_SlaveEnalbe
 .text.LL_WhitelistLookup
                0x0000000000015876       0x4e C:\Users\19156\Desktop\DualModeKeyboard\LIB\libCH57xBLE.a(ll_whitelist.o)
                0x0000000000015876                LL_WhitelistLookup
 .text.LL_WhitelistAdd
                0x00000000000158c4       0xb4 C:\Users\19156\Desktop\DualModeKeyboard\LIB\libCH57xBLE.a(ll_whitelist.o)
                0x00000000000158c4                LL_WhitelistAdd
 .text.LL_WhitelistClearAll
                0x0000000000015978       0x4a C:\Users\19156\Desktop\DualModeKeyboard\LIB\libCH57xBLE.a(ll_whitelist.o)
                0x0000000000015978                LL_WhitelistClearAll
 .text.LL_WhitelistInit
                0x00000000000159c2       0x12 C:\Users\19156\Desktop\DualModeKeyboard\LIB\libCH57xBLE.a(ll_whitelist.o)
                0x00000000000159c2                LL_WhitelistInit
 .text.AES_DevAESEnc
                0x00000000000159d4      0x1a2 C:\Users\19156\Desktop\DualModeKeyboard\LIB\libCH57xBLE.a(aes.o)
                0x00000000000159d4                AES_DevAESEnc
 .text.LL_Encrypt
                0x0000000000015b76       0x10 C:\Users\19156\Desktop\DualModeKeyboard\LIB\libCH57xBLE.a(aes.o)
                0x0000000000015b76                LL_Encrypt
 .text.AES_DevPktEnc
                0x0000000000015b86       0x62 C:\Users\19156\Desktop\DualModeKeyboard\LIB\libCH57xBLE.a(aes.o)
                0x0000000000015b86                AES_DevPktEnc
 .text.AES_DevPktDec
                0x0000000000015be8       0x6e C:\Users\19156\Desktop\DualModeKeyboard\LIB\libCH57xBLE.a(aes.o)
                0x0000000000015be8                AES_DevPktDec
 .text.BB_DevInit
                0x0000000000015c56       0xba C:\Users\19156\Desktop\DualModeKeyboard\LIB\libCH57xBLE.a(bb.o)
                0x0000000000015c56                BB_DevInit
 .text.DMA_DevInit
                0x0000000000015d10       0x48 C:\Users\19156\Desktop\DualModeKeyboard\LIB\libCH57xBLE.a(dma.o)
                0x0000000000015d10                DMA_DevInit
 .text.ll_tx_wait_pkt_recv
                0x0000000000015d58       0x24 C:\Users\19156\Desktop\DualModeKeyboard\LIB\libCH57xBLE.a(ip.o)
                0x0000000000015d58                ll_tx_wait_pkt_recv
 .text.ll_tx_set_wait_finish
                0x0000000000015d7c       0x2e C:\Users\19156\Desktop\DualModeKeyboard\LIB\libCH57xBLE.a(ip.o)
                0x0000000000015d7c                ll_tx_set_wait_finish
 .text.ll_rx_wait_pkt_recv
                0x0000000000015daa       0x24 C:\Users\19156\Desktop\DualModeKeyboard\LIB\libCH57xBLE.a(ip.o)
                0x0000000000015daa                ll_rx_wait_pkt_recv
 .text.ll_multi_states_check
                0x0000000000015dce       0x34 C:\Users\19156\Desktop\DualModeKeyboard\LIB\libCH57xBLE.a(ip.o)
                0x0000000000015dce                ll_multi_states_check
 .text.ble_ll_hw_api_shut
                0x0000000000015e02       0x56 C:\Users\19156\Desktop\DualModeKeyboard\LIB\libCH57xBLE.a(ip.o)
                0x0000000000015e02                ble_ll_hw_api_shut
 .text.ble_ll_hw_api_rx
                0x0000000000015e58       0xe0 C:\Users\19156\Desktop\DualModeKeyboard\LIB\libCH57xBLE.a(ip.o)
                0x0000000000015e58                ble_ll_hw_api_rx
 .text.ll_multi_states_process
                0x0000000000015f38      0x114 C:\Users\19156\Desktop\DualModeKeyboard\LIB\libCH57xBLE.a(ip.o)
                0x0000000000015f38                ll_multi_states_process
 .text.ll_hw_api_tx_direct_test
                0x000000000001604c      0x112 C:\Users\19156\Desktop\DualModeKeyboard\LIB\libCH57xBLE.a(ip.o)
                0x000000000001604c                ll_hw_api_tx_direct_test
 .text.BLE_RegInit
                0x000000000001615e       0x5e C:\Users\19156\Desktop\DualModeKeyboard\LIB\libCH57xBLE.a(ip.o)
                0x000000000001615e                BLE_RegInit
 .text.BLE_ADCTune
                0x00000000000161bc       0x4c C:\Users\19156\Desktop\DualModeKeyboard\LIB\libCH57xBLE.a(ip.o)
                0x00000000000161bc                BLE_ADCTune
 .text.BLE_IPCoreInit
                0x0000000000016208       0x94 C:\Users\19156\Desktop\DualModeKeyboard\LIB\libCH57xBLE.a(ip.o)
                0x0000000000016208                BLE_IPCoreInit
 .text.LLE_DevInit
                0x000000000001629c       0x54 C:\Users\19156\Desktop\DualModeKeyboard\LIB\libCH57xBLE.a(lle.o)
                0x000000000001629c                LLE_DevInit
 .text.RF_DevSetChannel
                0x00000000000162f0      0x13c C:\Users\19156\Desktop\DualModeKeyboard\LIB\libCH57xBLE.a(rf_fh.o)
                0x00000000000162f0                RF_DevSetChannel
 .text.RF_FrequencyHoppingChange
                0x000000000001642c       0x98 C:\Users\19156\Desktop\DualModeKeyboard\LIB\libCH57xBLE.a(rf_fh.o)
                0x000000000001642c                RF_FrequencyHoppingChange
 .text.RF_Rx    0x00000000000164c4      0x1dc C:\Users\19156\Desktop\DualModeKeyboard\LIB\libCH57xBLE.a(rf_fh.o)
                0x00000000000164c4                RF_Rx
 .text.RFEND_Reset
                0x00000000000166a0       0xa8 C:\Users\19156\Desktop\DualModeKeyboard\LIB\libCH57xBLE.a(rfend.o)
                0x00000000000166a0                RFEND_Reset
 .text.RFEND_DevInit
                0x0000000000016748      0x172 C:\Users\19156\Desktop\DualModeKeyboard\LIB\libCH57xBLE.a(rfend.o)
                0x0000000000016748                RFEND_DevInit
 .text.RFEND_RXFilter
                0x00000000000168ba       0x7c C:\Users\19156\Desktop\DualModeKeyboard\LIB\libCH57xBLE.a(rfend.o)
                0x00000000000168ba                RFEND_RXFilter
 .text.RFEND_RXAdc
                0x0000000000016936      0x14c C:\Users\19156\Desktop\DualModeKeyboard\LIB\libCH57xBLE.a(rfend.o)
                0x0000000000016936                RFEND_RXAdc
 .text.RFEND_TXCtune
                0x0000000000016a82      0xcfc C:\Users\19156\Desktop\DualModeKeyboard\LIB\libCH57xBLE.a(rfend.o)
                0x0000000000016a82                RFEND_TXCtune
 .text.RFEND_TXFtune
                0x000000000001777e       0x10 C:\Users\19156\Desktop\DualModeKeyboard\LIB\libCH57xBLE.a(rfend.o)
                0x000000000001777e                RFEND_TXFtune
 .text.API_DisconnectCmd
                0x000000000001778e       0x16 C:\Users\19156\Desktop\DualModeKeyboard\LIB\libCH57xBLE.a(api_c.o)
                0x000000000001778e                API_DisconnectCmd
 .text.API_MD_DisconnectCmd
                0x00000000000177a4        0x2 C:\Users\19156\Desktop\DualModeKeyboard\LIB\libCH57xBLE.a(api_c.o)
                0x00000000000177a4                API_MD_DisconnectCmd
 .text.API_HostNumCompletedPktCmd
                0x00000000000177a6       0x34 C:\Users\19156\Desktop\DualModeKeyboard\LIB\libCH57xBLE.a(api_c.o)
                0x00000000000177a6                API_HostNumCompletedPktCmd
 .text.API_ReadBDADDRCmd
                0x00000000000177da       0x24 C:\Users\19156\Desktop\DualModeKeyboard\LIB\libCH57xBLE.a(api_c.o)
                0x00000000000177da                API_ReadBDADDRCmd
 .text.API_LE_ReadBufSizeCmd
                0x00000000000177fe       0x24 C:\Users\19156\Desktop\DualModeKeyboard\LIB\libCH57xBLE.a(api_c.o)
                0x00000000000177fe                API_LE_ReadBufSizeCmd
 .text.API_LE_SetRandomAddressCmd
                0x0000000000017822       0x22 C:\Users\19156\Desktop\DualModeKeyboard\LIB\libCH57xBLE.a(api_c.o)
                0x0000000000017822                API_LE_SetRandomAddressCmd
 .text.API_LE_SetAdvParamCmd
                0x0000000000017844       0x22 C:\Users\19156\Desktop\DualModeKeyboard\LIB\libCH57xBLE.a(api_c.o)
                0x0000000000017844                API_LE_SetAdvParamCmd
 .text.API_LE_SetAdvDataCmd
                0x0000000000017866       0x22 C:\Users\19156\Desktop\DualModeKeyboard\LIB\libCH57xBLE.a(api_c.o)
                0x0000000000017866                API_LE_SetAdvDataCmd
 .text.API_LE_SetScanRspDataCmd
                0x0000000000017888       0x22 C:\Users\19156\Desktop\DualModeKeyboard\LIB\libCH57xBLE.a(api_c.o)
                0x0000000000017888                API_LE_SetScanRspDataCmd
 .text.API_LE_SetAdvEnableCmd
                0x00000000000178aa       0x22 C:\Users\19156\Desktop\DualModeKeyboard\LIB\libCH57xBLE.a(api_c.o)
                0x00000000000178aa                API_LE_SetAdvEnableCmd
 .text.API_LE_SetScanEnableCmd
                0x00000000000178cc       0x24 C:\Users\19156\Desktop\DualModeKeyboard\LIB\libCH57xBLE.a(api_c.o)
                0x00000000000178cc                API_LE_SetScanEnableCmd
 .text.API_LE_CreateConnCancelCmd
                0x00000000000178f0       0x22 C:\Users\19156\Desktop\DualModeKeyboard\LIB\libCH57xBLE.a(api_c.o)
                0x00000000000178f0                API_LE_CreateConnCancelCmd
 .text.API_LE_ClearWhiteListCmd
                0x0000000000017912       0x24 C:\Users\19156\Desktop\DualModeKeyboard\LIB\libCH57xBLE.a(api_c.o)
                0x0000000000017912                API_LE_ClearWhiteListCmd
 .text.API_LE_AddWhiteListCmd
                0x0000000000017936       0x24 C:\Users\19156\Desktop\DualModeKeyboard\LIB\libCH57xBLE.a(api_c.o)
                0x0000000000017936                API_LE_AddWhiteListCmd
 .text.API_LE_ConnUpdateCmd
                0x000000000001795a       0x1e C:\Users\19156\Desktop\DualModeKeyboard\LIB\libCH57xBLE.a(api_c.o)
                0x000000000001795a                API_LE_ConnUpdateCmd
 .text.API_LE_RandCmd
                0x0000000000017978       0x24 C:\Users\19156\Desktop\DualModeKeyboard\LIB\libCH57xBLE.a(api_c.o)
                0x0000000000017978                API_LE_RandCmd
 .text.API_LE_StartEncryptCmd
                0x000000000001799c       0x18 C:\Users\19156\Desktop\DualModeKeyboard\LIB\libCH57xBLE.a(api_c.o)
                0x000000000001799c                API_LE_StartEncryptCmd
 .text.API_LE_LtkReqReplyCmd
                0x00000000000179b4       0x30 C:\Users\19156\Desktop\DualModeKeyboard\LIB\libCH57xBLE.a(api_c.o)
                0x00000000000179b4                API_LE_LtkReqReplyCmd
 .text.API_LE_LtkReqNegReplyCmd
                0x00000000000179e4       0x30 C:\Users\19156\Desktop\DualModeKeyboard\LIB\libCH57xBLE.a(api_c.o)
                0x00000000000179e4                API_LE_LtkReqNegReplyCmd
 .text.API_LE_RemoteConnParamReqReplyCmd
                0x0000000000017a14       0x30 C:\Users\19156\Desktop\DualModeKeyboard\LIB\libCH57xBLE.a(api_c.o)
                0x0000000000017a14                API_LE_RemoteConnParamReqReplyCmd
 .text.API_LE_RemoteConnParamReqNegReplyCmd
                0x0000000000017a44       0x32 C:\Users\19156\Desktop\DualModeKeyboard\LIB\libCH57xBLE.a(api_c.o)
                0x0000000000017a44                API_LE_RemoteConnParamReqNegReplyCmd
 .text.API_LE_AddDeviceToResolvingList
                0x0000000000017a76       0x26 C:\Users\19156\Desktop\DualModeKeyboard\LIB\libCH57xBLE.a(api_c.o)
                0x0000000000017a76                API_LE_AddDeviceToResolvingList
 .text.API_LE_ClearResolvingList
                0x0000000000017a9c       0x26 C:\Users\19156\Desktop\DualModeKeyboard\LIB\libCH57xBLE.a(api_c.o)
                0x0000000000017a9c                API_LE_ClearResolvingList
 .text.API_LE_SetAddressResolvableEnableCmd
                0x0000000000017ac2       0x26 C:\Users\19156\Desktop\DualModeKeyboard\LIB\libCH57xBLE.a(api_c.o)
                0x0000000000017ac2                API_LE_SetAddressResolvableEnableCmd
 .text.API_LE_SetResolvableAddressTimeoutCmd
                0x0000000000017ae8       0x26 C:\Users\19156\Desktop\DualModeKeyboard\LIB\libCH57xBLE.a(api_c.o)
                0x0000000000017ae8                API_LE_SetResolvableAddressTimeoutCmd
 .text.API_SendDataPkt
                0x0000000000017b0e        0x4 C:\Users\19156\Desktop\DualModeKeyboard\LIB\libCH57xBLE.a(api_c.o)
                0x0000000000017b0e                API_SendDataPkt
 .text.CreatePRBS9
                0x0000000000017b12       0x52 C:\Users\19156\Desktop\DualModeKeyboard\LIB\libCH57xBLE.a(ctl_input.o)
                0x0000000000017b12                CreatePRBS9
 .text.CreatePRBS15
                0x0000000000017b64       0x5a C:\Users\19156\Desktop\DualModeKeyboard\LIB\libCH57xBLE.a(ctl_input.o)
                0x0000000000017b64                CreatePRBS15
 .text.LL_TransmitterTest
                0x0000000000017bbe      0x13a C:\Users\19156\Desktop\DualModeKeyboard\LIB\libCH57xBLE.a(ctl_input.o)
                0x0000000000017bbe                LL_TransmitterTest
 .text.LL_Disconnect
                0x0000000000017cf8       0x3e C:\Users\19156\Desktop\DualModeKeyboard\LIB\libCH57xBLE.a(ctl_input.o)
                0x0000000000017cf8                LL_Disconnect
 .text.LL_MD_Disconnect
                0x0000000000017d36       0x28 C:\Users\19156\Desktop\DualModeKeyboard\LIB\libCH57xBLE.a(ctl_input.o)
                0x0000000000017d36                LL_MD_Disconnect
 .text.LL_ReadBDAddr
                0x0000000000017d5e       0x24 C:\Users\19156\Desktop\DualModeKeyboard\LIB\libCH57xBLE.a(ctl_input.o)
                0x0000000000017d5e                LL_ReadBDAddr
 .text.LL_LE_ReadBufSize
                0x0000000000017d82       0x20 C:\Users\19156\Desktop\DualModeKeyboard\LIB\libCH57xBLE.a(ctl_input.o)
                0x0000000000017d82                LL_LE_ReadBufSize
 .text.LL_SetRandomAddress
                0x0000000000017da2       0xae C:\Users\19156\Desktop\DualModeKeyboard\LIB\libCH57xBLE.a(ctl_input.o)
                0x0000000000017da2                LL_SetRandomAddress
 .text.LL_SetAdvParam
                0x0000000000017e50       0xd0 C:\Users\19156\Desktop\DualModeKeyboard\LIB\libCH57xBLE.a(ctl_input.o)
                0x0000000000017e50                LL_SetAdvParam
 .text.LL_SetAdvData
                0x0000000000017f20       0x48 C:\Users\19156\Desktop\DualModeKeyboard\LIB\libCH57xBLE.a(ctl_input.o)
                0x0000000000017f20                LL_SetAdvData
 .text.LL_SetScanRspData
                0x0000000000017f68       0x48 C:\Users\19156\Desktop\DualModeKeyboard\LIB\libCH57xBLE.a(ctl_input.o)
                0x0000000000017f68                LL_SetScanRspData
 .text.LL_SetAdvControl
                0x0000000000017fb0      0x10c C:\Users\19156\Desktop\DualModeKeyboard\LIB\libCH57xBLE.a(ctl_input.o)
                0x0000000000017fb0                LL_SetAdvControl
 .text.LL_SetScanEnable
                0x00000000000180bc       0x94 C:\Users\19156\Desktop\DualModeKeyboard\LIB\libCH57xBLE.a(ctl_input.o)
                0x00000000000180bc                LL_SetScanEnable
 .text.LL_CreateConnCancel
                0x0000000000018150       0x26 C:\Users\19156\Desktop\DualModeKeyboard\LIB\libCH57xBLE.a(ctl_input.o)
                0x0000000000018150                LL_CreateConnCancel
 .text.LL_RemoteConnParamReqReply
                0x0000000000018176      0x140 C:\Users\19156\Desktop\DualModeKeyboard\LIB\libCH57xBLE.a(ctl_input.o)
                0x0000000000018176                LL_RemoteConnParamReqReply
 .text.LL_RemoteConnParamReqNegReply
                0x00000000000182b6       0x3a C:\Users\19156\Desktop\DualModeKeyboard\LIB\libCH57xBLE.a(ctl_input.o)
                0x00000000000182b6                LL_RemoteConnParamReqNegReply
 .text.LL_AddWhiteListDevice
                0x00000000000182f0       0x8a C:\Users\19156\Desktop\DualModeKeyboard\LIB\libCH57xBLE.a(ctl_input.o)
                0x00000000000182f0                LL_AddWhiteListDevice
 .text.LL_ConnUpdate
                0x000000000001837a      0x13e C:\Users\19156\Desktop\DualModeKeyboard\LIB\libCH57xBLE.a(ctl_input.o)
                0x000000000001837a                LL_ConnUpdate
 .text.LL_ClearWhiteList
                0x00000000000184b8       0x52 C:\Users\19156\Desktop\DualModeKeyboard\LIB\libCH57xBLE.a(ctl_input.o)
                0x00000000000184b8                LL_ClearWhiteList
 .text.LL_Rand  0x000000000001850a       0x36 C:\Users\19156\Desktop\DualModeKeyboard\LIB\libCH57xBLE.a(ctl_input.o)
                0x000000000001850a                LL_Rand
 .text.LL_StartEncrypt
                0x0000000000018540      0x18c C:\Users\19156\Desktop\DualModeKeyboard\LIB\libCH57xBLE.a(ctl_input.o)
                0x0000000000018540                LL_StartEncrypt
 .text.LL_LtkReqReply
                0x00000000000186cc       0xba C:\Users\19156\Desktop\DualModeKeyboard\LIB\libCH57xBLE.a(ctl_input.o)
                0x00000000000186cc                LL_LtkReqReply
 .text.LL_LtkReqNegReply
                0x0000000000018786       0x4a C:\Users\19156\Desktop\DualModeKeyboard\LIB\libCH57xBLE.a(ctl_input.o)
                0x0000000000018786                LL_LtkReqNegReply
 .text.LL_AddDeviceToResolvingList
                0x00000000000187d0       0xac C:\Users\19156\Desktop\DualModeKeyboard\LIB\libCH57xBLE.a(ctl_input.o)
                0x00000000000187d0                LL_AddDeviceToResolvingList
 .text.LL_ClearResolvingList
                0x000000000001887c       0x10 C:\Users\19156\Desktop\DualModeKeyboard\LIB\libCH57xBLE.a(ctl_input.o)
                0x000000000001887c                LL_ClearResolvingList
 .text.LL_SetAddressResolvableEnable
                0x000000000001888c       0x54 C:\Users\19156\Desktop\DualModeKeyboard\LIB\libCH57xBLE.a(ctl_input.o)
                0x000000000001888c                LL_SetAddressResolvableEnable
 .text.LL_SetResolvableAddressTimeout
                0x00000000000188e0       0x4c C:\Users\19156\Desktop\DualModeKeyboard\LIB\libCH57xBLE.a(ctl_input.o)
                0x00000000000188e0                LL_SetResolvableAddressTimeout
 .text.LL_SendDataPkt
                0x000000000001892c       0xa8 C:\Users\19156\Desktop\DualModeKeyboard\LIB\libCH57xBLE.a(ctl_input.o)
                0x000000000001892c                LL_SendDataPkt
 .text.HCI_LE_ConnectionCompleteCback
                0x00000000000189d4        0xa C:\Users\19156\Desktop\DualModeKeyboard\LIB\libCH57xBLE.a(ctl_output.o)
                0x00000000000189d4                HCI_LE_ConnectionCompleteCback
 .text.HCI_LE_ConnectionUpdateCompleteCback
                0x00000000000189de        0x4 C:\Users\19156\Desktop\DualModeKeyboard\LIB\libCH57xBLE.a(ctl_output.o)
                0x00000000000189de                HCI_LE_ConnectionUpdateCompleteCback
 .text.HCI_LE_ReadRemoteUsedFeaturesCompleteCback
                0x00000000000189e2        0x4 C:\Users\19156\Desktop\DualModeKeyboard\LIB\libCH57xBLE.a(ctl_output.o)
                0x00000000000189e2                HCI_LE_ReadRemoteUsedFeaturesCompleteCback
 .text.HCI_LE_LongTermKeyRequestCback
                0x00000000000189e6        0x4 C:\Users\19156\Desktop\DualModeKeyboard\LIB\libCH57xBLE.a(ctl_output.o)
                0x00000000000189e6                HCI_LE_LongTermKeyRequestCback
 .text.HCI_LE_RemoteConnectionParameterRequestCback
                0x00000000000189ea        0x4 C:\Users\19156\Desktop\DualModeKeyboard\LIB\libCH57xBLE.a(ctl_output.o)
                0x00000000000189ea                HCI_LE_RemoteConnectionParameterRequestCback
 .text.HCI_RemoteConnectionParameterRequestCback
                0x00000000000189ee        0x4 C:\Users\19156\Desktop\DualModeKeyboard\LIB\libCH57xBLE.a(ctl_output.o)
                0x00000000000189ee                HCI_RemoteConnectionParameterRequestCback
 .text.HCI_LE_DataLengthChangeCback
                0x00000000000189f2        0x4 C:\Users\19156\Desktop\DualModeKeyboard\LIB\libCH57xBLE.a(ctl_output.o)
                0x00000000000189f2                HCI_LE_DataLengthChangeCback
 .text.HCI_LE_EnhancedConnectionCompleteCback
                0x00000000000189f6       0x16 C:\Users\19156\Desktop\DualModeKeyboard\LIB\libCH57xBLE.a(ctl_output.o)
                0x00000000000189f6                HCI_LE_EnhancedConnectionCompleteCback
 .text.HCI_DisconnectionCompleteCback
                0x0000000000018a0c        0x4 C:\Users\19156\Desktop\DualModeKeyboard\LIB\libCH57xBLE.a(ctl_output.o)
                0x0000000000018a0c                HCI_DisconnectionCompleteCback
 .text.HCI_EncryptionChangeCback
                0x0000000000018a10        0x4 C:\Users\19156\Desktop\DualModeKeyboard\LIB\libCH57xBLE.a(ctl_output.o)
                0x0000000000018a10                HCI_EncryptionChangeCback
 .text.HCI_ReadRemoteVersionInfoCback
                0x0000000000018a14        0x4 C:\Users\19156\Desktop\DualModeKeyboard\LIB\libCH57xBLE.a(ctl_output.o)
                0x0000000000018a14                HCI_ReadRemoteVersionInfoCback
 .text.HCI_CommandCompleteCback
                0x0000000000018a18        0x4 C:\Users\19156\Desktop\DualModeKeyboard\LIB\libCH57xBLE.a(ctl_output.o)
                0x0000000000018a18                HCI_CommandCompleteCback
 .text.HCI_CommandStatusCback
                0x0000000000018a1c        0x4 C:\Users\19156\Desktop\DualModeKeyboard\LIB\libCH57xBLE.a(ctl_output.o)
                0x0000000000018a1c                HCI_CommandStatusCback
 .text.HCI_NumberOfCompletedPacketsCback
                0x0000000000018a20        0x4 C:\Users\19156\Desktop\DualModeKeyboard\LIB\libCH57xBLE.a(ctl_output.o)
                0x0000000000018a20                HCI_NumberOfCompletedPacketsCback
 .text.HCI_DataBufferOverflowCback
                0x0000000000018a24        0x4 C:\Users\19156\Desktop\DualModeKeyboard\LIB\libCH57xBLE.a(ctl_output.o)
                0x0000000000018a24                HCI_DataBufferOverflowCback
 .text.HCI_EncryptionKeyRefreshCompleteCback
                0x0000000000018a28        0x4 C:\Users\19156\Desktop\DualModeKeyboard\LIB\libCH57xBLE.a(ctl_output.o)
                0x0000000000018a28                HCI_EncryptionKeyRefreshCompleteCback
 .text.HCI_AuthenticatedPayloadTimeoutExpiredCback
                0x0000000000018a2c        0x2 C:\Users\19156\Desktop\DualModeKeyboard\LIB\libCH57xBLE.a(ctl_output.o)
                0x0000000000018a2c                HCI_AuthenticatedPayloadTimeoutExpiredCback
 .text.HCI_RxDataCompleteCback
                0x0000000000018a2e        0x4 C:\Users\19156\Desktop\DualModeKeyboard\LIB\libCH57xBLE.a(ctl_output.o)
                0x0000000000018a2e                HCI_RxDataCompleteCback
 .text.gapBondMgrInvertCharCfgItem
                0x0000000000018a32       0x24 C:\Users\19156\Desktop\DualModeKeyboard\LIB\libCH57xBLE.a(gapbondmgr.o)
 .text.gapBondMgrGetStateFlags
                0x0000000000018a56       0x2a C:\Users\19156\Desktop\DualModeKeyboard\LIB\libCH57xBLE.a(gapbondmgr.o)
 .text.gapBondMgrBondTotal
                0x0000000000018a80       0x4c C:\Users\19156\Desktop\DualModeKeyboard\LIB\libCH57xBLE.a(gapbondmgr.o)
 .text.gapBondFreeAuthEvt
                0x0000000000018acc       0x34 C:\Users\19156\Desktop\DualModeKeyboard\LIB\libCH57xBLE.a(gapbondmgr.o)
 .text.gapBondMgrEraseBonding
                0x0000000000018b00      0x126 C:\Users\19156\Desktop\DualModeKeyboard\LIB\libCH57xBLE.a(gapbondmgr.o)
 .text.gapBondMgrEraseAllBondings
                0x0000000000018c26       0x2a C:\Users\19156\Desktop\DualModeKeyboard\LIB\libCH57xBLE.a(gapbondmgr.o)
 .text.gapBondMgr_SyncWhiteList
                0x0000000000018c50       0x4c C:\Users\19156\Desktop\DualModeKeyboard\LIB\libCH57xBLE.a(gapbondmgr.o)
 .text.gapBondMgr_SyncResolveList
                0x0000000000018c9c       0x94 C:\Users\19156\Desktop\DualModeKeyboard\LIB\libCH57xBLE.a(gapbondmgr.o)
 .text.gapBondSetupPrivFlag
                0x0000000000018d30       0x28 C:\Users\19156\Desktop\DualModeKeyboard\LIB\libCH57xBLE.a(gapbondmgr.o)
 .text.gapBondMgrReadBonds
                0x0000000000018d58       0xac C:\Users\19156\Desktop\DualModeKeyboard\LIB\libCH57xBLE.a(gapbondmgr.o)
 .text.gapBondMgrSendServiceChange
                0x0000000000018e04        0xc C:\Users\19156\Desktop\DualModeKeyboard\LIB\libCH57xBLE.a(gapbondmgr.o)
 .text.gapBondMgrBondReq
                0x0000000000018e10       0x70 C:\Users\19156\Desktop\DualModeKeyboard\LIB\libCH57xBLE.a(gapbondmgr.o)
 .text.gapBondMgrAuthenticate
                0x0000000000018e80      0x158 C:\Users\19156\Desktop\DualModeKeyboard\LIB\libCH57xBLE.a(gapbondmgr.o)
 .text.gapBondMgrFindAddr
                0x0000000000018fd8       0x46 C:\Users\19156\Desktop\DualModeKeyboard\LIB\libCH57xBLE.a(gapbondmgr.o)
 .text.gapBondMgrAddBond
                0x000000000001901e      0x19c C:\Users\19156\Desktop\DualModeKeyboard\LIB\libCH57xBLE.a(gapbondmgr.o)
 .text.gapBondPairStateCB
                0x00000000000191ba       0x48 C:\Users\19156\Desktop\DualModeKeyboard\LIB\libCH57xBLE.a(gapbondmgr.o)
 .text.gapBondPasscodeCB
                0x0000000000019202       0x82 C:\Users\19156\Desktop\DualModeKeyboard\LIB\libCH57xBLE.a(gapbondmgr.o)
 .text.gapBondMgrGetPublicAddr
                0x0000000000019284       0x4a C:\Users\19156\Desktop\DualModeKeyboard\LIB\libCH57xBLE.a(gapbondmgr.o)
 .text.gapBondMgrChangeState.constprop.9
                0x00000000000192ce       0x74 C:\Users\19156\Desktop\DualModeKeyboard\LIB\libCH57xBLE.a(gapbondmgr.o)
 .text.gapBondMgrUpdateCharCfg
                0x0000000000019342       0xde C:\Users\19156\Desktop\DualModeKeyboard\LIB\libCH57xBLE.a(gapbondmgr.o)
 .text.GAPBondMgr_ParamInit
                0x0000000000019420      0x166 C:\Users\19156\Desktop\DualModeKeyboard\LIB\libCH57xBLE.a(gapbondmgr.o)
                0x0000000000019420                GAPBondMgr_ParamInit
 .text.GAPBondMgr_Erase
                0x0000000000019586       0x6a C:\Users\19156\Desktop\DualModeKeyboard\LIB\libCH57xBLE.a(gapbondmgr.o)
                0x0000000000019586                GAPBondMgr_Erase
 .text.GAPBondMgr_GetParameter
                0x00000000000195f0       0xf8 C:\Users\19156\Desktop\DualModeKeyboard\LIB\libCH57xBLE.a(gapbondmgr.o)
                0x00000000000195f0                GAPBondMgr_GetParameter
 .text.GAPBondMgr_LinkTerm
                0x00000000000196e8       0x9a C:\Users\19156\Desktop\DualModeKeyboard\LIB\libCH57xBLE.a(gapbondmgr.o)
                0x00000000000196e8                GAPBondMgr_LinkTerm
 .text.GAPBondMgr_ResolveAddr
                0x0000000000019782       0xdc C:\Users\19156\Desktop\DualModeKeyboard\LIB\libCH57xBLE.a(gapbondmgr.o)
                0x0000000000019782                GAPBondMgr_ResolveAddr
 .text.GAPBondMgr_SlaveReqSecurity
                0x000000000001985e       0x7a C:\Users\19156\Desktop\DualModeKeyboard\LIB\libCH57xBLE.a(gapbondmgr.o)
                0x000000000001985e                GAPBondMgr_SlaveReqSecurity
 .text.GAPBondMgr_ServiceChangeInd
                0x00000000000198d8       0x88 C:\Users\19156\Desktop\DualModeKeyboard\LIB\libCH57xBLE.a(gapbondmgr.o)
                0x00000000000198d8                GAPBondMgr_ServiceChangeInd
 .text.GAPBondMgr_UpdateCharCfg
                0x0000000000019960       0x76 C:\Users\19156\Desktop\DualModeKeyboard\LIB\libCH57xBLE.a(gapbondmgr.o)
                0x0000000000019960                GAPBondMgr_UpdateCharCfg
 .text.GAPBondMgr_PeripheralRegister
                0x00000000000199d6       0x2e C:\Users\19156\Desktop\DualModeKeyboard\LIB\libCH57xBLE.a(gapbondmgr.o)
                0x00000000000199d6                GAPBondMgr_PeripheralRegister
 .text.GAPBondMgr_PasscodeRsp
                0x0000000000019a04       0x3e C:\Users\19156\Desktop\DualModeKeyboard\LIB\libCH57xBLE.a(gapbondmgr.o)
                0x0000000000019a04                GAPBondMgr_PasscodeRsp
 .text.GAPBondMgr_PeriSecurityReq
                0x0000000000019a42       0x18 C:\Users\19156\Desktop\DualModeKeyboard\LIB\libCH57xBLE.a(gapbondmgr.o)
                0x0000000000019a42                GAPBondMgr_PeriSecurityReq
 .text.GAPBondMgr_LinkEst
                0x0000000000019a5a      0x148 C:\Users\19156\Desktop\DualModeKeyboard\LIB\libCH57xBLE.a(gapbondmgr.o)
                0x0000000000019a5a                GAPBondMgr_LinkEst
 .text.GAPBondMgr_Init
                0x0000000000019ba2       0x18 C:\Users\19156\Desktop\DualModeKeyboard\LIB\libCH57xBLE.a(gapbondmgr.o)
                0x0000000000019ba2                GAPBondMgr_Init
 .text.gapBondMgr_SyncResolveListUpdate
                0x0000000000019bba       0xc0 C:\Users\19156\Desktop\DualModeKeyboard\LIB\libCH57xBLE.a(gapbondmgr.o)
                0x0000000000019bba                gapBondMgr_SyncResolveListUpdate
 .text.GAPBondMgr_SetParameter
                0x0000000000019c7a      0x4ba C:\Users\19156\Desktop\DualModeKeyboard\LIB\libCH57xBLE.a(gapbondmgr.o)
                0x0000000000019c7a                GAPBondMgr_SetParameter
 .text.GAPBondMgr_ProcessGAPMsg
                0x000000000001a134      0x28e C:\Users\19156\Desktop\DualModeKeyboard\LIB\libCH57xBLE.a(gapbondmgr.o)
                0x000000000001a134                GAPBondMgr_ProcessGAPMsg
 .text.GAPBondMgr_ProcessEvent
                0x000000000001a3c2      0x1c0 C:\Users\19156\Desktop\DualModeKeyboard\LIB\libCH57xBLE.a(gapbondmgr.o)
                0x000000000001a3c2                GAPBondMgr_ProcessEvent
 .text.gapRole_PeripheralProcessTMOSMsg
                0x000000000001a582      0x270 C:\Users\19156\Desktop\DualModeKeyboard\LIB\libCH57xBLE.a(peripheral.o)
 .text.GAPRole_PeripheralProcessEvent
                0x000000000001a7f2      0x18c C:\Users\19156\Desktop\DualModeKeyboard\LIB\libCH57xBLE.a(peripheral.o)
                0x000000000001a7f2                GAPRole_PeripheralProcessEvent
 .text.GAPRole_PeripheralConnParamUpdateReq
                0x000000000001a97e       0x6a C:\Users\19156\Desktop\DualModeKeyboard\LIB\libCH57xBLE.a(peripheral.o)
                0x000000000001a97e                GAPRole_PeripheralConnParamUpdateReq
 .text.GAPRole_PeripheralStartDevice
                0x000000000001a9e8       0x56 C:\Users\19156\Desktop\DualModeKeyboard\LIB\libCH57xBLE.a(peripheral.o)
                0x000000000001a9e8                GAPRole_PeripheralStartDevice
 .text.GAPRole_PeripheralEnable
                0x000000000001aa3e       0xec C:\Users\19156\Desktop\DualModeKeyboard\LIB\libCH57xBLE.a(peripheral.o)
                0x000000000001aa3e                GAPRole_PeripheralEnable
 .text.GAPRole_ParamInit
                0x000000000001ab2a       0xb0 C:\Users\19156\Desktop\DualModeKeyboard\LIB\libCH57xBLE.a(role.o)
                0x000000000001ab2a                GAPRole_ParamInit
 .text.GAPRole_GetParameter
                0x000000000001abda       0xdc C:\Users\19156\Desktop\DualModeKeyboard\LIB\libCH57xBLE.a(role.o)
                0x000000000001abda                GAPRole_GetParameter
 .text.GAPRole_SetParameter
                0x000000000001acb6      0x268 C:\Users\19156\Desktop\DualModeKeyboard\LIB\libCH57xBLE.a(role.o)
                0x000000000001acb6                GAPRole_SetParameter
 .text.GAPRole_TerminateLink
                0x000000000001af1e       0x24 C:\Users\19156\Desktop\DualModeKeyboard\LIB\libCH57xBLE.a(role.o)
                0x000000000001af1e                GAPRole_TerminateLink
 .text.GAPRole_PeripheralInit
                0x000000000001af42       0x70 C:\Users\19156\Desktop\DualModeKeyboard\LIB\libCH57xBLE.a(role.o)
                0x000000000001af42                GAPRole_PeripheralInit
 .text.tmos_memory_init
                0x000000000001afb2       0x5a C:\Users\19156\Desktop\DualModeKeyboard\LIB\libCH57xBLE.a(memory.o)
                0x000000000001afb2                tmos_memory_init
 .text.tmos_bm_adjust_header
                0x000000000001b00c       0x34 C:\Users\19156\Desktop\DualModeKeyboard\LIB\libCH57xBLE.a(memory.o)
                0x000000000001b00c                tmos_bm_adjust_header
 .text.ATT_BuildErrorRsp
                0x000000000001b040       0x26 C:\Users\19156\Desktop\DualModeKeyboard\LIB\libCH57xBLE.a(att.o)
                0x000000000001b040                ATT_BuildErrorRsp
 .text.ATT_ParamInit
                0x000000000001b066        0xa C:\Users\19156\Desktop\DualModeKeyboard\LIB\libCH57xBLE.a(att.o)
                0x000000000001b066                ATT_ParamInit
 .text.ATT_ConvertUUIDto128
                0x000000000001b070       0x46 C:\Users\19156\Desktop\DualModeKeyboard\LIB\libCH57xBLE.a(att.o)
                0x000000000001b070                ATT_ConvertUUIDto128
 .text.ATT_CompareUUID
                0x000000000001b0b6       0x66 C:\Users\19156\Desktop\DualModeKeyboard\LIB\libCH57xBLE.a(att.o)
                0x000000000001b0b6                ATT_CompareUUID
 .text.ATT_RegisterServer
                0x000000000001b11c        0x6 C:\Users\19156\Desktop\DualModeKeyboard\LIB\libCH57xBLE.a(att.o)
                0x000000000001b11c                ATT_RegisterServer
 .text.ATT_ParsePacket
                0x000000000001b122       0x94 C:\Users\19156\Desktop\DualModeKeyboard\LIB\libCH57xBLE.a(att.o)
                0x000000000001b122                ATT_ParsePacket
 .text.ATT_UpdateMTU
                0x000000000001b1b6       0x3c C:\Users\19156\Desktop\DualModeKeyboard\LIB\libCH57xBLE.a(att.o)
                0x000000000001b1b6                ATT_UpdateMTU
 .text.ATT_GetMTU
                0x000000000001b1f2       0x1e C:\Users\19156\Desktop\DualModeKeyboard\LIB\libCH57xBLE.a(att.o)
                0x000000000001b1f2                ATT_GetMTU
 .text.attSendMsg
                0x000000000001b210       0xb8 C:\Users\19156\Desktop\DualModeKeyboard\LIB\libCH57xBLE.a(att.o)
                0x000000000001b210                attSendMsg
 .text.attSendRspMsg
                0x000000000001b2c8       0x48 C:\Users\19156\Desktop\DualModeKeyboard\LIB\libCH57xBLE.a(att.o)
                0x000000000001b2c8                attSendRspMsg
 .text.ATT_ErrorRsp
                0x000000000001b310       0x12 C:\Users\19156\Desktop\DualModeKeyboard\LIB\libCH57xBLE.a(att.o)
                0x000000000001b310                ATT_ErrorRsp
 .text.ATT_BuildExchangeMTURsp
                0x000000000001b322       0x16 C:\Users\19156\Desktop\DualModeKeyboard\LIB\libCH57xBLE.a(att_server.o)
                0x000000000001b322                ATT_BuildExchangeMTURsp
 .text.ATT_BuildFindInfoRsp
                0x000000000001b338       0x24 C:\Users\19156\Desktop\DualModeKeyboard\LIB\libCH57xBLE.a(att_server.o)
                0x000000000001b338                ATT_BuildFindInfoRsp
 .text.ATT_BuildFindByTypeValueRsp
                0x000000000001b35c        0xc C:\Users\19156\Desktop\DualModeKeyboard\LIB\libCH57xBLE.a(att_server.o)
                0x000000000001b35c                ATT_BuildFindByTypeValueRsp
 .text.ATT_BuildReadByTypeRsp
                0x000000000001b368       0x1c C:\Users\19156\Desktop\DualModeKeyboard\LIB\libCH57xBLE.a(att_server.o)
                0x000000000001b368                ATT_BuildReadByTypeRsp
 .text.ATT_BuildReadRsp
                0x000000000001b384        0x6 C:\Users\19156\Desktop\DualModeKeyboard\LIB\libCH57xBLE.a(att_server.o)
                0x000000000001b384                ATT_BuildReadRsp
 .text.ATT_BuildReadBlobRsp
                0x000000000001b38a        0x6 C:\Users\19156\Desktop\DualModeKeyboard\LIB\libCH57xBLE.a(att_server.o)
                0x000000000001b38a                ATT_BuildReadBlobRsp
 .text.ATT_BuildReadMultiRsp
                0x000000000001b390        0x6 C:\Users\19156\Desktop\DualModeKeyboard\LIB\libCH57xBLE.a(att_server.o)
                0x000000000001b390                ATT_BuildReadMultiRsp
 .text.ATT_BuildReadByGrpTypeRsp
                0x000000000001b396       0x1c C:\Users\19156\Desktop\DualModeKeyboard\LIB\libCH57xBLE.a(att_server.o)
                0x000000000001b396                ATT_BuildReadByGrpTypeRsp
 .text.ATT_BuildPrepareWriteRsp
                0x000000000001b3b2       0x30 C:\Users\19156\Desktop\DualModeKeyboard\LIB\libCH57xBLE.a(att_server.o)
                0x000000000001b3b2                ATT_BuildPrepareWriteRsp
 .text.ATT_BuildHandleValueInd
                0x000000000001b3e2       0x1e C:\Users\19156\Desktop\DualModeKeyboard\LIB\libCH57xBLE.a(att_server.o)
                0x000000000001b3e2                ATT_BuildHandleValueInd
 .text.ATT_ParseExchangeMTUReq
                0x000000000001b400       0x1c C:\Users\19156\Desktop\DualModeKeyboard\LIB\libCH57xBLE.a(att_server.o)
                0x000000000001b400                ATT_ParseExchangeMTUReq
 .text.ATT_ExchangeMTURsp
                0x000000000001b41c       0x20 C:\Users\19156\Desktop\DualModeKeyboard\LIB\libCH57xBLE.a(att_server.o)
                0x000000000001b41c                ATT_ExchangeMTURsp
 .text.ATT_ParseFindInfoReq
                0x000000000001b43c       0x2a C:\Users\19156\Desktop\DualModeKeyboard\LIB\libCH57xBLE.a(att_server.o)
                0x000000000001b43c                ATT_ParseFindInfoReq
 .text.ATT_FindInfoRsp
                0x000000000001b466       0x52 C:\Users\19156\Desktop\DualModeKeyboard\LIB\libCH57xBLE.a(att_server.o)
                0x000000000001b466                ATT_FindInfoRsp
 .text.ATT_ParseFindByTypeValueReq
                0x000000000001b4b8       0x78 C:\Users\19156\Desktop\DualModeKeyboard\LIB\libCH57xBLE.a(att_server.o)
                0x000000000001b4b8                ATT_ParseFindByTypeValueReq
 .text.ATT_FindByTypeValueRsp
                0x000000000001b530       0x42 C:\Users\19156\Desktop\DualModeKeyboard\LIB\libCH57xBLE.a(att_server.o)
                0x000000000001b530                ATT_FindByTypeValueRsp
 .text.ATT_ParseReadByTypeReq
                0x000000000001b572       0x5a C:\Users\19156\Desktop\DualModeKeyboard\LIB\libCH57xBLE.a(att_server.o)
                0x000000000001b572                ATT_ParseReadByTypeReq
 .text.ATT_ReadByTypeRsp
                0x000000000001b5cc       0x42 C:\Users\19156\Desktop\DualModeKeyboard\LIB\libCH57xBLE.a(att_server.o)
                0x000000000001b5cc                ATT_ReadByTypeRsp
 .text.ATT_ParseReadReq
                0x000000000001b60e       0x1c C:\Users\19156\Desktop\DualModeKeyboard\LIB\libCH57xBLE.a(att_server.o)
                0x000000000001b60e                ATT_ParseReadReq
 .text.ATT_ReadRsp
                0x000000000001b62a       0x32 C:\Users\19156\Desktop\DualModeKeyboard\LIB\libCH57xBLE.a(att_server.o)
                0x000000000001b62a                ATT_ReadRsp
 .text.ATT_ParseReadBlobReq
                0x000000000001b65c       0x2a C:\Users\19156\Desktop\DualModeKeyboard\LIB\libCH57xBLE.a(att_server.o)
                0x000000000001b65c                ATT_ParseReadBlobReq
 .text.ATT_ReadBlobRsp
                0x000000000001b686       0x30 C:\Users\19156\Desktop\DualModeKeyboard\LIB\libCH57xBLE.a(att_server.o)
                0x000000000001b686                ATT_ReadBlobRsp
 .text.ATT_ParseReadMultiReq
                0x000000000001b6b6       0x1a C:\Users\19156\Desktop\DualModeKeyboard\LIB\libCH57xBLE.a(att_server.o)
                0x000000000001b6b6                ATT_ParseReadMultiReq
 .text.ATT_ReadMultiRsp
                0x000000000001b6d0       0x38 C:\Users\19156\Desktop\DualModeKeyboard\LIB\libCH57xBLE.a(att_server.o)
                0x000000000001b6d0                ATT_ReadMultiRsp
 .text.ATT_ReadByGrpTypeRsp
                0x000000000001b708       0x42 C:\Users\19156\Desktop\DualModeKeyboard\LIB\libCH57xBLE.a(att_server.o)
                0x000000000001b708                ATT_ReadByGrpTypeRsp
 .text.ATT_ParseWriteReq
                0x000000000001b74a       0x3e C:\Users\19156\Desktop\DualModeKeyboard\LIB\libCH57xBLE.a(att_server.o)
                0x000000000001b74a                ATT_ParseWriteReq
 .text.ATT_WriteRsp
                0x000000000001b788        0xc C:\Users\19156\Desktop\DualModeKeyboard\LIB\libCH57xBLE.a(att_server.o)
                0x000000000001b788                ATT_WriteRsp
 .text.ATT_ParsePrepareWriteReq
                0x000000000001b794       0x42 C:\Users\19156\Desktop\DualModeKeyboard\LIB\libCH57xBLE.a(att_server.o)
                0x000000000001b794                ATT_ParsePrepareWriteReq
 .text.ATT_PrepareWriteRsp
                0x000000000001b7d6       0x30 C:\Users\19156\Desktop\DualModeKeyboard\LIB\libCH57xBLE.a(att_server.o)
                0x000000000001b7d6                ATT_PrepareWriteRsp
 .text.ATT_ParseExecuteWriteReq
                0x000000000001b806       0x14 C:\Users\19156\Desktop\DualModeKeyboard\LIB\libCH57xBLE.a(att_server.o)
                0x000000000001b806                ATT_ParseExecuteWriteReq
 .text.ATT_ExecuteWriteRsp
                0x000000000001b81a        0xc C:\Users\19156\Desktop\DualModeKeyboard\LIB\libCH57xBLE.a(att_server.o)
                0x000000000001b81a                ATT_ExecuteWriteRsp
 .text.ATT_HandleValueNoti
                0x000000000001b826       0x32 C:\Users\19156\Desktop\DualModeKeyboard\LIB\libCH57xBLE.a(att_server.o)
                0x000000000001b826                ATT_HandleValueNoti
 .text.ATT_HandleValueInd
                0x000000000001b858       0x32 C:\Users\19156\Desktop\DualModeKeyboard\LIB\libCH57xBLE.a(att_server.o)
                0x000000000001b858                ATT_HandleValueInd
 .text.ll_get_prime_number
                0x000000000001b88a       0x3c C:\Users\19156\Desktop\DualModeKeyboard\LIB\libCH57xBLE.a(ll.o)
                0x000000000001b88a                ll_get_prime_number
 .text.LL_ProcessEvent
                0x000000000001b8c6      0x130 C:\Users\19156\Desktop\DualModeKeyboard\LIB\libCH57xBLE.a(ll.o)
                0x000000000001b8c6                LL_ProcessEvent
 .text.LL_Init  0x000000000001b9f6       0xb2 C:\Users\19156\Desktop\DualModeKeyboard\LIB\libCH57xBLE.a(ll.o)
                0x000000000001b9f6                LL_Init
 .text.llAdvertiseSet
                0x000000000001baa8      0x152 C:\Users\19156\Desktop\DualModeKeyboard\LIB\libCH57xBLE.a(ll_advertise.o)
                0x000000000001baa8                llAdvertiseSet
 .text.llAdvertiseCreateCore
                0x000000000001bbfa       0x78 C:\Users\19156\Desktop\DualModeKeyboard\LIB\libCH57xBLE.a(ll_advertise.o)
 .text.ll_advertise_tx
                0x000000000001bc72      0x280 C:\Users\19156\Desktop\DualModeKeyboard\LIB\libCH57xBLE.a(ll_advertise.o)
 .text.llAdvTraverseallChannel
                0x000000000001bef2       0x88 C:\Users\19156\Desktop\DualModeKeyboard\LIB\libCH57xBLE.a(ll_advertise.o)
                0x000000000001bef2                llAdvTraverseallChannel
 .text.llAdvertiseStart
                0x000000000001bf7a       0xde C:\Users\19156\Desktop\DualModeKeyboard\LIB\libCH57xBLE.a(ll_advertise.o)
                0x000000000001bf7a                llAdvertiseStart
 .text.ll_advertise_filter
                0x000000000001c058      0x156 C:\Users\19156\Desktop\DualModeKeyboard\LIB\libCH57xBLE.a(ll_advertise.o)
                0x000000000001c058                ll_advertise_filter
 .text.LL_AdvertiseToStandby
                0x000000000001c1ae       0x7e C:\Users\19156\Desktop\DualModeKeyboard\LIB\libCH57xBLE.a(ll_advertise.o)
                0x000000000001c1ae                LL_AdvertiseToStandby
 .text.ll_advertise_process
                0x000000000001c22c      0x422 C:\Users\19156\Desktop\DualModeKeyboard\LIB\libCH57xBLE.a(ll_advertise.o)
                0x000000000001c22c                ll_advertise_process
 .text.LL_AdvertiseDirectTimeout
                0x000000000001c64e       0x1a C:\Users\19156\Desktop\DualModeKeyboard\LIB\libCH57xBLE.a(ll_advertise.o)
                0x000000000001c64e                LL_AdvertiseDirectTimeout
 .text.LL_AdvertiseEnalbe
                0x000000000001c668       0x46 C:\Users\19156\Desktop\DualModeKeyboard\LIB\libCH57xBLE.a(ll_advertise.o)
                0x000000000001c668                LL_AdvertiseEnalbe
 .text.LL_InitiateToStandby
                0x000000000001c6ae       0x94 C:\Users\19156\Desktop\DualModeKeyboard\LIB\libCH57xBLE.a(ll_initiate.o)
                0x000000000001c6ae                LL_InitiateToStandby
 .text.ll_resolvinglist_checkRPA
                0x000000000001c742       0x6c C:\Users\19156\Desktop\DualModeKeyboard\LIB\libCH57xBLE.a(ll_resolvinglist.o)
                0x000000000001c742                ll_resolvinglist_checkRPA
 .text.ll_resolvinglist_renew_rpa
                0x000000000001c7ae       0x4a C:\Users\19156\Desktop\DualModeKeyboard\LIB\libCH57xBLE.a(ll_resolvinglist.o)
                0x000000000001c7ae                ll_resolvinglist_renew_rpa
 .text.ll_resolvinglist_renew_set
                0x000000000001c7f8       0x12 C:\Users\19156\Desktop\DualModeKeyboard\LIB\libCH57xBLE.a(ll_resolvinglist.o)
                0x000000000001c7f8                ll_resolvinglist_renew_set
 .text.ll_resolvinglist_timeout_renew_rpa
                0x000000000001c80a       0x58 C:\Users\19156\Desktop\DualModeKeyboard\LIB\libCH57xBLE.a(ll_resolvinglist.o)
                0x000000000001c80a                ll_resolvinglist_timeout_renew_rpa
 .text.LL_ResolvinglistAdd
                0x000000000001c862      0x146 C:\Users\19156\Desktop\DualModeKeyboard\LIB\libCH57xBLE.a(ll_resolvinglist.o)
                0x000000000001c862                LL_ResolvinglistAdd
 .text.LL_ResolvinglistClearall
                0x000000000001c9a8       0x52 C:\Users\19156\Desktop\DualModeKeyboard\LIB\libCH57xBLE.a(ll_resolvinglist.o)
                0x000000000001c9a8                LL_ResolvinglistClearall
 .text.LL_ResolvinglistPeerIdentifyAddressGetIrk
                0x000000000001c9fa       0x52 C:\Users\19156\Desktop\DualModeKeyboard\LIB\libCH57xBLE.a(ll_resolvinglist.o)
                0x000000000001c9fa                LL_ResolvinglistPeerIdentifyAddressGetIrk
 .text.LL_ResolvinglistPeerRpaAddressGetIrk
                0x000000000001ca4c       0x3c C:\Users\19156\Desktop\DualModeKeyboard\LIB\libCH57xBLE.a(ll_resolvinglist.o)
                0x000000000001ca4c                LL_ResolvinglistPeerRpaAddressGetIrk
 .text.LL_ResolvinglistInit
                0x000000000001ca88       0x12 C:\Users\19156\Desktop\DualModeKeyboard\LIB\libCH57xBLE.a(ll_resolvinglist.o)
                0x000000000001ca88                LL_ResolvinglistInit
 .text.LL_AddrGenerateResolvableAddress
                0x000000000001ca9a       0x9c C:\Users\19156\Desktop\DualModeKeyboard\LIB\libCH57xBLE.a(ll_address.o)
                0x000000000001ca9a                LL_AddrGenerateResolvableAddress
 .text.LL_AddrInit
                0x000000000001cb36      0x12e C:\Users\19156\Desktop\DualModeKeyboard\LIB\libCH57xBLE.a(ll_address.o)
                0x000000000001cb36                LL_AddrInit
 .text.__lshrdi3
                0x000000000001cc64       0x2c c:/mounriver/mounriver_studio/toolchain/risc-v embedded gcc/bin/../lib/gcc/riscv-none-embed/8.2.0/rv32imac/ilp32\libgcc.a(_lshrdi3.o)
                0x000000000001cc64                __lshrdi3
 .text.__udivdi3
                0x000000000001cc90      0x398 c:/mounriver/mounriver_studio/toolchain/risc-v embedded gcc/bin/../lib/gcc/riscv-none-embed/8.2.0/rv32imac/ilp32\libgcc.a(_udivdi3.o)
                0x000000000001cc90                __udivdi3
 .text.__muldf3
                0x000000000001d028      0x4b4 c:/mounriver/mounriver_studio/toolchain/risc-v embedded gcc/bin/../lib/gcc/riscv-none-embed/8.2.0/rv32imac/ilp32\libgcc.a(muldf3.o)
                0x000000000001d028                __muldf3
 .text.__floatsidf
                0x000000000001d4dc       0x70 c:/mounriver/mounriver_studio/toolchain/risc-v embedded gcc/bin/../lib/gcc/riscv-none-embed/8.2.0/rv32imac/ilp32\libgcc.a(floatsidf.o)
                0x000000000001d4dc                __floatsidf
 .text.__mulsf3
                0x000000000001d54c      0x290 c:/mounriver/mounriver_studio/toolchain/risc-v embedded gcc/bin/../lib/gcc/riscv-none-embed/8.2.0/rv32imac/ilp32\libgcc.a(mulsf3.o)
                0x000000000001d54c                __mulsf3
 .text.__fixsfsi
                0x000000000001d7dc       0x62 c:/mounriver/mounriver_studio/toolchain/risc-v embedded gcc/bin/../lib/gcc/riscv-none-embed/8.2.0/rv32imac/ilp32\libgcc.a(fixsfsi.o)
                0x000000000001d7dc                __fixsfsi
 .text.__floatsisf
                0x000000000001d83e       0xc6 c:/mounriver/mounriver_studio/toolchain/risc-v embedded gcc/bin/../lib/gcc/riscv-none-embed/8.2.0/rv32imac/ilp32\libgcc.a(floatsisf.o)
                0x000000000001d83e                __floatsisf
 .text.__truncdfsf2
                0x000000000001d904      0x16a c:/mounriver/mounriver_studio/toolchain/risc-v embedded gcc/bin/../lib/gcc/riscv-none-embed/8.2.0/rv32imac/ilp32\libgcc.a(truncdfsf2.o)
                0x000000000001d904                __truncdfsf2
 .text.__clzsi2
                0x000000000001da6e       0x76 c:/mounriver/mounriver_studio/toolchain/risc-v embedded gcc/bin/../lib/gcc/riscv-none-embed/8.2.0/rv32imac/ilp32\libgcc.a(_clzsi2.o)
                0x000000000001da6e                __clzsi2
 .text.memcpy   0x000000000001dae4       0xb6 c:/mounriver/mounriver_studio/toolchain/risc-v embedded gcc/bin/../lib/gcc/riscv-none-embed/8.2.0/../../../../riscv-none-embed/lib/rv32imac/ilp32\libg_nano.a(lib_a-memcpy.o)
                0x000000000001dae4                memcpy
 *(.rodata)
 *(.rodata*)
 *fill*         0x000000000001db9a        0x2 
 .rodata.Calibration_LSI_FLASH.cst4
                0x000000000001db9c        0x4 ./StdPeriphDriver/CH57x_clk.o
 .rodata.Calibration_LSI_FLASH.cst8
                0x000000000001dba0       0x10 ./StdPeriphDriver/CH57x_clk.o
 .rodata.GPIOA_ModeCfg
                0x000000000001dbb0       0x14 ./StdPeriphDriver/CH57x_gpio.o
 .rodata.GPIOB_ModeCfg
                0x000000000001dbc4       0x14 ./StdPeriphDriver/CH57x_gpio.o
 .rodata.devInfo11073Cert
                0x000000000001dbd8        0xe ./Profile/devinfoservice.o
 *fill*         0x000000000001dbe6        0x2 
 .rodata.devInfoFirmwareRev
                0x000000000001dbe8       0x12 ./Profile/devinfoservice.o
 *fill*         0x000000000001dbfa        0x2 
 .rodata.devInfoHardwareRev
                0x000000000001dbfc       0x12 ./Profile/devinfoservice.o
 *fill*         0x000000000001dc0e        0x2 
 .rodata.devInfoMfrName
                0x000000000001dc10       0x12 ./Profile/devinfoservice.o
 *fill*         0x000000000001dc22        0x2 
 .rodata.devInfoModelNumber
                0x000000000001dc24        0xd ./Profile/devinfoservice.o
 *fill*         0x000000000001dc31        0x3 
 .rodata.devInfoSerialNumber
                0x000000000001dc34        0xe ./Profile/devinfoservice.o
 *fill*         0x000000000001dc42        0x2 
 .rodata.devInfoSoftwareRev
                0x000000000001dc44       0x12 ./Profile/devinfoservice.o
 *fill*         0x000000000001dc56        0x2 
 .rodata.hidReportMap
                0x000000000001dc58       0x5a ./Profile/hidkbdservice.o
 *fill*         0x000000000001dcb2        0x2 
 .rodata.CH57X_BLEInit.str1.4
                0x000000000001dcb4       0x14 ./HAL/MCU.o
                                         0x13 (size before relaxing)
 .rodata.attDeviceName
                0x000000000001dcc8       0x17 ./APP/app_ble.o
 *fill*         0x000000000001dcdf        0x1 
 .rodata.USB_DevTransProcess
                0x000000000001dce0       0x58 ./APP/app_usb.o
 .rodata.HID_KeyBoard_RepDesc
                0x000000000001dd38       0x3e ./APP/app_usb.o
                0x000000000001dd38                HID_KeyBoard_RepDesc
 *fill*         0x000000000001dd76        0x2 
 .rodata.HID_MediaCtrl_RepDesc
                0x000000000001dd78       0x17 ./APP/app_usb.o
                0x000000000001dd78                HID_MediaCtrl_RepDesc
 *fill*         0x000000000001dd8f        0x1 
 .rodata.USB_Device_Descr
                0x000000000001dd90       0x12 ./APP/app_usb.o
                0x000000000001dd90                USB_Device_Descr
 *fill*         0x000000000001dda2        0x2 
 .rodata.USB_ManuInfo_StrDescr
                0x000000000001dda4       0x14 ./APP/app_usb.o
                0x000000000001dda4                USB_ManuInfo_StrDescr
 .rodata.USB_ProdInfo_StrDescr
                0x000000000001ddb8       0x2a ./APP/app_usb.o
                0x000000000001ddb8                USB_ProdInfo_StrDescr
 *fill*         0x000000000001dde2        0x2 
 .rodata.GGS_SetParameter
                0x000000000001dde4       0x28 C:\Users\19156\Desktop\DualModeKeyboard\LIB\libCH57xBLE.a(gapgattserver.o)
 .rodata.GAP_DeviceInit
                0x000000000001de0c       0x30 C:\Users\19156\Desktop\DualModeKeyboard\LIB\libCH57xBLE.a(gapgattserver.o)
 .rodata.serverReqTbl
                0x000000000001de3c       0x60 C:\Users\19156\Desktop\DualModeKeyboard\LIB\libCH57xBLE.a(gattservapp.o)
                0x000000000001de3c                serverReqTbl
 .rodata.smpInitiatorProcessIncoming
                0x000000000001de9c       0x28 C:\Users\19156\Desktop\DualModeKeyboard\LIB\libCH57xBLE.a(sm.o)
 .rodata.smProcessDataMsg
                0x000000000001dec4       0x2c C:\Users\19156\Desktop\DualModeKeyboard\LIB\libCH57xBLE.a(sm.o)
 .rodata.smpResponderProcessIncoming
                0x000000000001def0       0x28 C:\Users\19156\Desktop\DualModeKeyboard\LIB\libCH57xBLE.a(sm.o)
 .rodata.IOCapMatrix
                0x000000000001df18       0x19 C:\Users\19156\Desktop\DualModeKeyboard\LIB\libCH57xBLE.a(sm.o)
                0x000000000001df18                IOCapMatrix
 *fill*         0x000000000001df31        0x3 
 .rodata.const_Rb
                0x000000000001df34       0x10 C:\Users\19156\Desktop\DualModeKeyboard\LIB\libCH57xBLE.a(sm.o)
                0x000000000001df34                const_Rb
 .rodata.SCA    0x000000000001df44       0x10 C:\Users\19156\Desktop\DualModeKeyboard\LIB\libCH57xBLE.a(ll_slave.o)
                0x000000000001df44                SCA
 .rodata.VER_LIB
                0x000000000001df54       0x14 C:\Users\19156\Desktop\DualModeKeyboard\LIB\libCH57xBLE.a(ip.o)
                0x000000000001df54                VER_LIB
 .rodata.GAPBondMgr_GetParameter
                0x000000000001df68       0x80 C:\Users\19156\Desktop\DualModeKeyboard\LIB\libCH57xBLE.a(gapbondmgr.o)
 .rodata.GAPBondMgr_SetParameter
                0x000000000001dfe8       0x84 C:\Users\19156\Desktop\DualModeKeyboard\LIB\libCH57xBLE.a(gapbondmgr.o)
 .rodata.GAPBondMgr_ProcessGAPMsg
                0x000000000001e06c       0x28 C:\Users\19156\Desktop\DualModeKeyboard\LIB\libCH57xBLE.a(gapbondmgr.o)
 .rodata.gapRole_PeripheralProcessTMOSMsg
                0x000000000001e094       0x20 C:\Users\19156\Desktop\DualModeKeyboard\LIB\libCH57xBLE.a(peripheral.o)
 .rodata.GAPRole_GetParameter
                0x000000000001e0b4       0x4c C:\Users\19156\Desktop\DualModeKeyboard\LIB\libCH57xBLE.a(role.o)
 .rodata.GAPRole_SetParameter
                0x000000000001e100       0x48 C:\Users\19156\Desktop\DualModeKeyboard\LIB\libCH57xBLE.a(role.o)
 .rodata.btBaseUUID
                0x000000000001e148       0x10 C:\Users\19156\Desktop\DualModeKeyboard\LIB\libCH57xBLE.a(att.o)
                0x000000000001e148                btBaseUUID
 .rodata.PrimeNumber
                0x000000000001e158       0x17 C:\Users\19156\Desktop\DualModeKeyboard\LIB\libCH57xBLE.a(ll.o)
                0x000000000001e158                PrimeNumber
 *fill*         0x000000000001e16f        0x1 
 .rodata.__muldf3
                0x000000000001e170       0x40 c:/mounriver/mounriver_studio/toolchain/risc-v embedded gcc/bin/../lib/gcc/riscv-none-embed/8.2.0/rv32imac/ilp32\libgcc.a(muldf3.o)
 .rodata.__mulsf3
                0x000000000001e1b0       0x40 c:/mounriver/mounriver_studio/toolchain/risc-v embedded gcc/bin/../lib/gcc/riscv-none-embed/8.2.0/rv32imac/ilp32\libgcc.a(mulsf3.o)
 .rodata.__clz_tab
                0x000000000001e1f0      0x100 c:/mounriver/mounriver_studio/toolchain/risc-v embedded gcc/bin/../lib/gcc/riscv-none-embed/8.2.0/rv32imac/ilp32\libgcc.a(_clz.o)
                0x000000000001e1f0                __clz_tab
 *(.sdata2.*)
 .sdata2.battLevelUUID
                0x000000000001e2f0        0x2 ./Profile/battservice.o
                0x000000000001e2f0                battLevelUUID
 *fill*         0x000000000001e2f2        0x2 
 .sdata2.battServUUID
                0x000000000001e2f4        0x2 ./Profile/battservice.o
                0x000000000001e2f4                battServUUID
 *fill*         0x000000000001e2f6        0x2 
 .sdata2.battService
                0x000000000001e2f8        0x8 ./Profile/battservice.o
 .sdata2.devInfo11073CertUUID
                0x000000000001e300        0x2 ./Profile/devinfoservice.o
                0x000000000001e300                devInfo11073CertUUID
 *fill*         0x000000000001e302        0x2 
 .sdata2.devInfoFirmwareRevUUID
                0x000000000001e304        0x2 ./Profile/devinfoservice.o
                0x000000000001e304                devInfoFirmwareRevUUID
 *fill*         0x000000000001e306        0x2 
 .sdata2.devInfoHardwareRevUUID
                0x000000000001e308        0x2 ./Profile/devinfoservice.o
                0x000000000001e308                devInfoHardwareRevUUID
 *fill*         0x000000000001e30a        0x2 
 .sdata2.devInfoMfrNameUUID
                0x000000000001e30c        0x2 ./Profile/devinfoservice.o
                0x000000000001e30c                devInfoMfrNameUUID
 *fill*         0x000000000001e30e        0x2 
 .sdata2.devInfoModelNumberUUID
                0x000000000001e310        0x2 ./Profile/devinfoservice.o
                0x000000000001e310                devInfoModelNumberUUID
 *fill*         0x000000000001e312        0x2 
 .sdata2.devInfoPnpIdUUID
                0x000000000001e314        0x2 ./Profile/devinfoservice.o
                0x000000000001e314                devInfoPnpIdUUID
 *fill*         0x000000000001e316        0x2 
 .sdata2.devInfoSerialNumberUUID
                0x000000000001e318        0x2 ./Profile/devinfoservice.o
                0x000000000001e318                devInfoSerialNumberUUID
 *fill*         0x000000000001e31a        0x2 
 .sdata2.devInfoServUUID
                0x000000000001e31c        0x2 ./Profile/devinfoservice.o
                0x000000000001e31c                devInfoServUUID
 *fill*         0x000000000001e31e        0x2 
 .sdata2.devInfoService
                0x000000000001e320        0x8 ./Profile/devinfoservice.o
 .sdata2.devInfoSoftwareRevUUID
                0x000000000001e328        0x2 ./Profile/devinfoservice.o
                0x000000000001e328                devInfoSoftwareRevUUID
 *fill*         0x000000000001e32a        0x2 
 .sdata2.devInfoSystemIdUUID
                0x000000000001e32c        0x2 ./Profile/devinfoservice.o
                0x000000000001e32c                devInfoSystemIdUUID
 *fill*         0x000000000001e32e        0x2 
 .sdata2.hidBootKeyInputUUID
                0x000000000001e330        0x2 ./Profile/hidkbdservice.o
                0x000000000001e330                hidBootKeyInputUUID
 *fill*         0x000000000001e332        0x2 
 .sdata2.hidBootKeyOutputUUID
                0x000000000001e334        0x2 ./Profile/hidkbdservice.o
                0x000000000001e334                hidBootKeyOutputUUID
 *fill*         0x000000000001e336        0x2 
 .sdata2.hidControlPointUUID
                0x000000000001e338        0x2 ./Profile/hidkbdservice.o
                0x000000000001e338                hidControlPointUUID
 *fill*         0x000000000001e33a        0x2 
 .sdata2.hidInfo
                0x000000000001e33c        0x4 ./Profile/hidkbdservice.o
 .sdata2.hidInfoUUID
                0x000000000001e340        0x2 ./Profile/hidkbdservice.o
                0x000000000001e340                hidInfoUUID
 *fill*         0x000000000001e342        0x2 
 .sdata2.hidProtocolModeUUID
                0x000000000001e344        0x2 ./Profile/hidkbdservice.o
                0x000000000001e344                hidProtocolModeUUID
 *fill*         0x000000000001e346        0x2 
 .sdata2.hidReportMapUUID
                0x000000000001e348        0x2 ./Profile/hidkbdservice.o
                0x000000000001e348                hidReportMapUUID
 *fill*         0x000000000001e34a        0x2 
 .sdata2.hidReportUUID
                0x000000000001e34c        0x2 ./Profile/hidkbdservice.o
                0x000000000001e34c                hidReportUUID
 *fill*         0x000000000001e34e        0x2 
 .sdata2.hidServUUID
                0x000000000001e350        0x2 ./Profile/hidkbdservice.o
                0x000000000001e350                hidServUUID
 *fill*         0x000000000001e352        0x2 
 .sdata2.hidService
                0x000000000001e354        0x8 ./Profile/hidkbdservice.o
 .sdata2.scanIntervalWindowUUID
                0x000000000001e35c        0x2 ./Profile/scanparamservice.o
                0x000000000001e35c                scanIntervalWindowUUID
 *fill*         0x000000000001e35e        0x2 
 .sdata2.scanParamRefreshUUID
                0x000000000001e360        0x2 ./Profile/scanparamservice.o
                0x000000000001e360                scanParamRefreshUUID
 *fill*         0x000000000001e362        0x2 
 .sdata2.scanParamServUUID
                0x000000000001e364        0x2 ./Profile/scanparamservice.o
                0x000000000001e364                scanParamServUUID
 *fill*         0x000000000001e366        0x2 
 .sdata2.scanParamService
                0x000000000001e368        0x8 ./Profile/scanparamservice.o
 .sdata2.USB_LangId_StrDescr
                0x000000000001e370        0x4 ./APP/app_usb.o
                0x000000000001e370                USB_LangId_StrDescr
 .sdata2.gapService
                0x000000000001e374        0x8 C:\Users\19156\Desktop\DualModeKeyboard\LIB\libCH57xBLE.a(gapgattserver.o)
 .sdata2.appearanceUUID
                0x000000000001e37c        0x2 C:\Users\19156\Desktop\DualModeKeyboard\LIB\libCH57xBLE.a(gatt_uuid.o)
                0x000000000001e37c                appearanceUUID
 *fill*         0x000000000001e37e        0x2 
 .sdata2.centAddrResUUID
                0x000000000001e380        0x2 C:\Users\19156\Desktop\DualModeKeyboard\LIB\libCH57xBLE.a(gatt_uuid.o)
                0x000000000001e380                centAddrResUUID
 *fill*         0x000000000001e382        0x2 
 .sdata2.characterUUID
                0x000000000001e384        0x2 C:\Users\19156\Desktop\DualModeKeyboard\LIB\libCH57xBLE.a(gatt_uuid.o)
                0x000000000001e384                characterUUID
 *fill*         0x000000000001e386        0x2 
 .sdata2.clientCharCfgUUID
                0x000000000001e388        0x2 C:\Users\19156\Desktop\DualModeKeyboard\LIB\libCH57xBLE.a(gatt_uuid.o)
                0x000000000001e388                clientCharCfgUUID
 *fill*         0x000000000001e38a        0x2 
 .sdata2.deviceNameUUID
                0x000000000001e38c        0x2 C:\Users\19156\Desktop\DualModeKeyboard\LIB\libCH57xBLE.a(gatt_uuid.o)
                0x000000000001e38c                deviceNameUUID
 *fill*         0x000000000001e38e        0x2 
 .sdata2.extReportRefUUID
                0x000000000001e390        0x2 C:\Users\19156\Desktop\DualModeKeyboard\LIB\libCH57xBLE.a(gatt_uuid.o)
                0x000000000001e390                extReportRefUUID
 *fill*         0x000000000001e392        0x2 
 .sdata2.gapServiceUUID
                0x000000000001e394        0x2 C:\Users\19156\Desktop\DualModeKeyboard\LIB\libCH57xBLE.a(gatt_uuid.o)
                0x000000000001e394                gapServiceUUID
 *fill*         0x000000000001e396        0x2 
 .sdata2.gattServiceUUID
                0x000000000001e398        0x2 C:\Users\19156\Desktop\DualModeKeyboard\LIB\libCH57xBLE.a(gatt_uuid.o)
                0x000000000001e398                gattServiceUUID
 *fill*         0x000000000001e39a        0x2 
 .sdata2.includeUUID
                0x000000000001e39c        0x2 C:\Users\19156\Desktop\DualModeKeyboard\LIB\libCH57xBLE.a(gatt_uuid.o)
                0x000000000001e39c                includeUUID
 *fill*         0x000000000001e39e        0x2 
 .sdata2.periConnParamUUID
                0x000000000001e3a0        0x2 C:\Users\19156\Desktop\DualModeKeyboard\LIB\libCH57xBLE.a(gatt_uuid.o)
                0x000000000001e3a0                periConnParamUUID
 *fill*         0x000000000001e3a2        0x2 
 .sdata2.primaryServiceUUID
                0x000000000001e3a4        0x2 C:\Users\19156\Desktop\DualModeKeyboard\LIB\libCH57xBLE.a(gatt_uuid.o)
                0x000000000001e3a4                primaryServiceUUID
 *fill*         0x000000000001e3a6        0x2 
 .sdata2.reportRefUUID
                0x000000000001e3a8        0x2 C:\Users\19156\Desktop\DualModeKeyboard\LIB\libCH57xBLE.a(gatt_uuid.o)
                0x000000000001e3a8                reportRefUUID
 *fill*         0x000000000001e3aa        0x2 
 .sdata2.secondaryServiceUUID
                0x000000000001e3ac        0x2 C:\Users\19156\Desktop\DualModeKeyboard\LIB\libCH57xBLE.a(gatt_uuid.o)
                0x000000000001e3ac                secondaryServiceUUID
 *fill*         0x000000000001e3ae        0x2 
 .sdata2.serviceChangedUUID
                0x000000000001e3b0        0x2 C:\Users\19156\Desktop\DualModeKeyboard\LIB\libCH57xBLE.a(gatt_uuid.o)
                0x000000000001e3b0                serviceChangedUUID
 *(.glue_7)
 *(.glue_7t)
 *(.gnu.linkonce.t.*)
                0x000000000001e3b4                . = ALIGN (0x4)
 *fill*         0x000000000001e3b2        0x2 

.rela.dyn       0x000000000001e3b4        0x0
 .rela.init     0x000000000001e3b4        0x0 ./StdPeriphDriver/CH57x_clk.o
 .rela.vector   0x000000000001e3b4        0x0 ./StdPeriphDriver/CH57x_clk.o
 .rela.handle_reset
                0x000000000001e3b4        0x0 ./StdPeriphDriver/CH57x_clk.o

.fini           0x000000000001e3b4        0x0
 *(SORT_NONE(.fini))
                0x000000000001e3b4                . = ALIGN (0x4)
                [!provide]                        PROVIDE (_etext = .)
                [!provide]                        PROVIDE (_eitcm = .)

.preinit_array  0x000000000001e3b4        0x0
                [!provide]                        PROVIDE (__preinit_array_start = .)
 *(.preinit_array)
                [!provide]                        PROVIDE (__preinit_array_end = .)

.init_array     0x000000000001e3b4        0x0
                [!provide]                        PROVIDE (__init_array_start = .)
 *(SORT_BY_INIT_PRIORITY(.init_array.*) SORT_BY_INIT_PRIORITY(.ctors.*))
 *(.init_array EXCLUDE_FILE(*crtend?.o *crtend.o *crtbegin?.o *crtbegin.o) .ctors)
                [!provide]                        PROVIDE (__init_array_end = .)

.fini_array     0x000000000001e3b4        0x0
                [!provide]                        PROVIDE (__fini_array_start = .)
 *(SORT_BY_INIT_PRIORITY(.fini_array.*) SORT_BY_INIT_PRIORITY(.dtors.*))
 *(.fini_array EXCLUDE_FILE(*crtend?.o *crtend.o *crtbegin?.o *crtbegin.o) .dtors)
                [!provide]                        PROVIDE (__fini_array_end = .)

.ctors
 *crtbegin.o(.ctors)
 *crtbegin?.o(.ctors)
 *(EXCLUDE_FILE(*crtend?.o *crtend.o) .ctors)
 *(SORT_BY_NAME(.ctors.*))
 *(.ctors)

.dtors
 *crtbegin.o(.dtors)
 *crtbegin?.o(.dtors)
 *(EXCLUDE_FILE(*crtend?.o *crtend.o) .dtors)
 *(SORT_BY_NAME(.dtors.*))
 *(.dtors)

.dalign         0x00000000200049c8        0x0 load address 0x000000000001e3b4
                0x00000000200049c8                . = (ORIGIN (RAM) + MAX (0x800, SIZEOF (.highcode)))

.dlalign        0x000000000001e3b4        0x0
                0x000000000001e3b4                . = ALIGN (0x4)
                0x000000000001e3b4                PROVIDE (_data_lma = .)

.data           0x00000000200049c8      0x778 load address 0x000000000001e3b4
                0x00000000200049c8                . = ALIGN (0x4)
                0x00000000200049c8                PROVIDE (_data_vma = .)
 *(.gnu.linkonce.r.*)
 *(.data .data.*)
 .data.battAttrTbl
                0x00000000200049c8       0x50 ./Profile/battservice.o
 .data.battCBs  0x0000000020004a18        0xc ./Profile/battservice.o
                0x0000000020004a18                battCBs
 .data.devInfoAttrTbl
                0x0000000020004a24      0x130 ./Profile/devinfoservice.o
 .data.devInfoCBs
                0x0000000020004b54        0xc ./Profile/devinfoservice.o
                0x0000000020004b54                devInfoCBs
 .data.hidDev_PeripheralCBs
                0x0000000020004b60        0xc ./Profile/hiddev.o
 .data.hidAttrTbl
                0x0000000020004b6c      0x1e0 ./Profile/hidkbdservice.o
 .data.hidKbdCBs
                0x0000000020004d4c        0xc ./Profile/hidkbdservice.o
                0x0000000020004d4c                hidKbdCBs
 .data.scanParamAttrTbl
                0x0000000020004d58       0x60 ./Profile/scanparamservice.o
 .data.scanParamCBs
                0x0000000020004db8        0xc ./Profile/scanparamservice.o
                0x0000000020004db8                scanParamCBs
 .data.hidEmuHidCBs
                0x0000000020004dc4       0x10 ./APP/app_ble.o
 .data.scanRspData
                0x0000000020004dd4       0x1f ./APP/app_ble.o
 *fill*         0x0000000020004df3        0x1 
 .data.USB_Config_Descr
                0x0000000020004df4       0x52 ./APP/app_usb.o
                0x0000000020004df4                USB_Config_Descr
 *fill*         0x0000000020004e46        0x2 
 .data.KeyCfg_RAM_C
                0x0000000020004e48       0x25 ./APP/usercfg.o
                0x0000000020004e48                KeyCfg_RAM_C
 *fill*         0x0000000020004e6d        0x3 
 .data.KeyCfg_RAM_CTRL
                0x0000000020004e70       0x25 ./APP/usercfg.o
                0x0000000020004e70                KeyCfg_RAM_CTRL
 *fill*         0x0000000020004e95        0x3 
 .data.KeyCfg_RAM_ENTER
                0x0000000020004e98       0x25 ./APP/usercfg.o
                0x0000000020004e98                KeyCfg_RAM_ENTER
 *fill*         0x0000000020004ebd        0x3 
 .data.KeyCfg_RAM_RBT
                0x0000000020004ec0       0x25 ./APP/usercfg.o
                0x0000000020004ec0                KeyCfg_RAM_RBT
 *fill*         0x0000000020004ee5        0x3 
 .data.KeyCfg_RAM_RL
                0x0000000020004ee8       0x25 ./APP/usercfg.o
                0x0000000020004ee8                KeyCfg_RAM_RL
 *fill*         0x0000000020004f0d        0x3 
 .data.KeyCfg_RAM_RR
                0x0000000020004f10       0x25 ./APP/usercfg.o
                0x0000000020004f10                KeyCfg_RAM_RR
 *fill*         0x0000000020004f35        0x3 
 .data.KeyCfg_RAM_V
                0x0000000020004f38       0x25 ./APP/usercfg.o
                0x0000000020004f38                KeyCfg_RAM_V
 *fill*         0x0000000020004f5d        0x3 
 .data.KeyCfg_RAM_X
                0x0000000020004f60       0x25 ./APP/usercfg.o
                0x0000000020004f60                KeyCfg_RAM_X
 *fill*         0x0000000020004f85        0x3 
 .data.UserCfg_RAM
                0x0000000020004f88        0xb ./APP/usercfg.o
                0x0000000020004f88                UserCfg_RAM
 *fill*         0x0000000020004f93        0x1 
 .data.gapAttrTbl
                0x0000000020004f94       0x90 C:\Users\19156\Desktop\DualModeKeyboard\LIB\libCH57xBLE.a(gapgattserver.o)
 .data.gapServiceCBs
                0x0000000020005024        0xc C:\Users\19156\Desktop\DualModeKeyboard\LIB\libCH57xBLE.a(gapgattserver.o)
                0x0000000020005024                gapServiceCBs
 .data.gattAttrTbl
                0x0000000020005030       0x40 C:\Users\19156\Desktop\DualModeKeyboard\LIB\libCH57xBLE.a(gattservapp.o)
 .data.gattServiceCBs
                0x0000000020005070        0xc C:\Users\19156\Desktop\DualModeKeyboard\LIB\libCH57xBLE.a(gattservapp.o)
 .data.smInitiatorCBs
                0x000000002000507c        0xc C:\Users\19156\Desktop\DualModeKeyboard\LIB\libCH57xBLE.a(sm.o)
                0x000000002000507c                smInitiatorCBs
 .data.smResponderCBs
                0x0000000020005088        0xc C:\Users\19156\Desktop\DualModeKeyboard\LIB\libCH57xBLE.a(sm.o)
                0x0000000020005088                smResponderCBs
 *(.gnu.linkonce.d.*)
                0x0000000020005098                . = ALIGN (0x8)
 *fill*         0x0000000020005094        0x4 
                0x0000000020005898                PROVIDE (__global_pointer$ = (. + 0x800))
 *(.sdata .sdata.*)
 .sdata.battLevel
                0x0000000020005098        0x1 ./Profile/battservice.o
 .sdata.battLevelProps
                0x0000000020005099        0x1 ./Profile/battservice.o
 .sdata.battMaxLevel
                0x000000002000509a        0x2 ./Profile/battservice.o
 .sdata.battMinLevel
                0x000000002000509c        0x2 ./Profile/battservice.o
 *fill*         0x000000002000509e        0x2 
 .sdata.hidReportRefBattLevel
                0x00000000200050a0        0x2 ./Profile/battservice.o
 .sdata.devInfo11073CertProps
                0x00000000200050a2        0x1 ./Profile/devinfoservice.o
 .sdata.devInfoFirmwareRevProps
                0x00000000200050a3        0x1 ./Profile/devinfoservice.o
 .sdata.devInfoHardwareRevProps
                0x00000000200050a4        0x1 ./Profile/devinfoservice.o
 .sdata.devInfoMfrNameProps
                0x00000000200050a5        0x1 ./Profile/devinfoservice.o
 .sdata.devInfoModelNumberProps
                0x00000000200050a6        0x1 ./Profile/devinfoservice.o
 *fill*         0x00000000200050a7        0x1 
 .sdata.devInfoPnpId
                0x00000000200050a8        0x7 ./Profile/devinfoservice.o
 .sdata.devInfoPnpIdProps
                0x00000000200050af        0x1 ./Profile/devinfoservice.o
 .sdata.devInfoSerialNumberProps
                0x00000000200050b0        0x1 ./Profile/devinfoservice.o
 .sdata.devInfoSoftwareRevProps
                0x00000000200050b1        0x1 ./Profile/devinfoservice.o
 .sdata.devInfoSystemIdProps
                0x00000000200050b2        0x1 ./Profile/devinfoservice.o
 *fill*         0x00000000200050b3        0x1 
 .sdata.hidDevBondCB
                0x00000000200050b4        0x8 ./Profile/hiddev.o
 .sdata.hidControlPointProps
                0x00000000200050bc        0x1 ./Profile/hidkbdservice.o
 *fill*         0x00000000200050bd        0x3 
 .sdata.hidExtReportRefDesc
                0x00000000200050c0        0x2 ./Profile/hidkbdservice.o
 .sdata.hidInfoProps
                0x00000000200050c2        0x1 ./Profile/hidkbdservice.o
 .sdata.hidProtocolMode
                0x00000000200050c3        0x1 ./Profile/hidkbdservice.o
                0x00000000200050c3                hidProtocolMode
 .sdata.hidProtocolModeProps
                0x00000000200050c4        0x1 ./Profile/hidkbdservice.o
 .sdata.hidReportBootKeyInProps
                0x00000000200050c5        0x1 ./Profile/hidkbdservice.o
 .sdata.hidReportBootKeyOutProps
                0x00000000200050c6        0x1 ./Profile/hidkbdservice.o
 .sdata.hidReportConsumerInProps
                0x00000000200050c7        0x1 ./Profile/hidkbdservice.o
 .sdata.hidReportFeatureProps
                0x00000000200050c8        0x1 ./Profile/hidkbdservice.o
 .sdata.hidReportKeyInProps
                0x00000000200050c9        0x1 ./Profile/hidkbdservice.o
 .sdata.hidReportLedOutProps
                0x00000000200050ca        0x1 ./Profile/hidkbdservice.o
 *fill*         0x00000000200050cb        0x1 
 .sdata.hidReportMapLen
                0x00000000200050cc        0x2 ./Profile/hidkbdservice.o
                0x00000000200050cc                hidReportMapLen
 .sdata.hidReportMapProps
                0x00000000200050ce        0x1 ./Profile/hidkbdservice.o
 *fill*         0x00000000200050cf        0x1 
 .sdata.hidReportRefConsumerIn
                0x00000000200050d0        0x2 ./Profile/hidkbdservice.o
 *fill*         0x00000000200050d2        0x2 
 .sdata.hidReportRefFeature
                0x00000000200050d4        0x2 ./Profile/hidkbdservice.o
 *fill*         0x00000000200050d6        0x2 
 .sdata.hidReportRefKeyIn
                0x00000000200050d8        0x2 ./Profile/hidkbdservice.o
 *fill*         0x00000000200050da        0x2 
 .sdata.hidReportRefLedOut
                0x00000000200050dc        0x2 ./Profile/hidkbdservice.o
 .sdata.scanIntervalWindowProps
                0x00000000200050de        0x1 ./Profile/scanparamservice.o
 .sdata.scanParamRefreshProps
                0x00000000200050df        0x1 ./Profile/scanparamservice.o
 .sdata.advertData
                0x00000000200050e0        0x7 ./APP/app_ble.o
 *fill*         0x00000000200050e7        0x1 
 .sdata.hidEmuCfg
                0x00000000200050e8        0x8 ./APP/app_ble.o
 .sdata.hidEmuConnHandle
                0x00000000200050f0        0x2 ./APP/app_ble.o
 .sdata.hidEmuTaskId
                0x00000000200050f2        0x1 ./APP/app_ble.o
 .sdata.TMOS_Enco_Debounce_ID
                0x00000000200050f3        0x1 ./APP/keyin.o
 .sdata.TMOS_Keys_Debounce_ID
                0x00000000200050f4        0x1 ./APP/keyin.o
 .sdata.TMOS_Keys_TaskManager_ID
                0x00000000200050f5        0x1 ./APP/keyin.o
 .sdata.TMOS_Keys_TransMacro_ID
                0x00000000200050f6        0x1 ./APP/keyin.o
 .sdata.enco_finish_flg
                0x00000000200050f7        0x1 ./APP/keyin.o
                0x00000000200050f7                enco_finish_flg
 .sdata.finish_upload
                0x00000000200050f8        0x1 ./APP/keyin.o
                0x00000000200050f8                finish_upload
 .sdata.TMOSTASK_ProtoCtrl_Fresh_ID
                0x00000000200050f9        0x1 ./APP/protocol.o
 .sdata.TMOSTASK_ProtoCtrl_UploadData_ID
                0x00000000200050fa        0x1 ./APP/protocol.o
 *fill*         0x00000000200050fb        0x1 
 .sdata.holdrand.5453
                0x00000000200050fc        0x4 C:\Users\19156\Desktop\DualModeKeyboard\LIB\libCH57xBLE.a(tmos.o)
 .sdata.gapAdvAppTaskID
                0x0000000020005100        0x1 C:\Users\19156\Desktop\DualModeKeyboard\LIB\libCH57xBLE.a(gap_peripheral.o)
 .sdata.appearanceCharProps
                0x0000000020005101        0x1 C:\Users\19156\Desktop\DualModeKeyboard\LIB\libCH57xBLE.a(gapgattserver.o)
 .sdata.centAddrRes
                0x0000000020005102        0x1 C:\Users\19156\Desktop\DualModeKeyboard\LIB\libCH57xBLE.a(gapgattserver.o)
 .sdata.centAddrResCharProps
                0x0000000020005103        0x1 C:\Users\19156\Desktop\DualModeKeyboard\LIB\libCH57xBLE.a(gapgattserver.o)
 .sdata.deviceNameCharProps
                0x0000000020005104        0x1 C:\Users\19156\Desktop\DualModeKeyboard\LIB\libCH57xBLE.a(gapgattserver.o)
 .sdata.periConnParamCharProps
                0x0000000020005105        0x1 C:\Users\19156\Desktop\DualModeKeyboard\LIB\libCH57xBLE.a(gapgattserver.o)
 *fill*         0x0000000020005106        0x2 
 .sdata.periConnParameters
                0x0000000020005108        0x8 C:\Users\19156\Desktop\DualModeKeyboard\LIB\libCH57xBLE.a(gapgattserver.o)
 .sdata.gattCentAppTaskID
                0x0000000020005110        0x1 C:\Users\19156\Desktop\DualModeKeyboard\LIB\libCH57xBLE.a(gatt.o)
 .sdata.gattPeriAppTaskID
                0x0000000020005111        0x1 C:\Users\19156\Desktop\DualModeKeyboard\LIB\libCH57xBLE.a(gatt.o)
 .sdata.GATTServApp_TaskID
                0x0000000020005112        0x1 C:\Users\19156\Desktop\DualModeKeyboard\LIB\libCH57xBLE.a(gattservapp.o)
 .sdata.appTaskID
                0x0000000020005113        0x1 C:\Users\19156\Desktop\DualModeKeyboard\LIB\libCH57xBLE.a(gattservapp.o)
 .sdata.gattService
                0x0000000020005114        0x8 C:\Users\19156\Desktop\DualModeKeyboard\LIB\libCH57xBLE.a(gattservapp.o)
 .sdata.nextHandle
                0x000000002000511c        0x2 C:\Users\19156\Desktop\DualModeKeyboard\LIB\libCH57xBLE.a(gattservapp.o)
 .sdata.reqTaskId
                0x000000002000511e        0x1 C:\Users\19156\Desktop\DualModeKeyboard\LIB\libCH57xBLE.a(gattservapp.o)
 .sdata.serviceChangedCharProps
                0x000000002000511f        0x1 C:\Users\19156\Desktop\DualModeKeyboard\LIB\libCH57xBLE.a(gattservapp.o)
 .sdata.gapBondCB
                0x0000000020005120        0x8 C:\Users\19156\Desktop\DualModeKeyboard\LIB\libCH57xBLE.a(gapbondmgr.o)
 .sdata.gapBond_Auto
                0x0000000020005128        0x1 C:\Users\19156\Desktop\DualModeKeyboard\LIB\libCH57xBLE.a(gapbondmgr.o)
                0x0000000020005128                gapBond_Auto
 .sdata.gapBond_AutoFailReason
                0x0000000020005129        0x1 C:\Users\19156\Desktop\DualModeKeyboard\LIB\libCH57xBLE.a(gapbondmgr.o)
 .sdata.gapBond_BondFailOption
                0x000000002000512a        0x1 C:\Users\19156\Desktop\DualModeKeyboard\LIB\libCH57xBLE.a(gapbondmgr.o)
 .sdata.gapBond_Cent_PairingMode
                0x000000002000512b        0x1 C:\Users\19156\Desktop\DualModeKeyboard\LIB\libCH57xBLE.a(gapbondmgr.o)
 .sdata.gapBond_Erase
                0x000000002000512c        0x1 C:\Users\19156\Desktop\DualModeKeyboard\LIB\libCH57xBLE.a(gapbondmgr.o)
                0x000000002000512c                gapBond_Erase
 .sdata.gapBond_KeySize
                0x000000002000512d        0x1 C:\Users\19156\Desktop\DualModeKeyboard\LIB\libCH57xBLE.a(gapbondmgr.o)
 .sdata.gapBond_Peri_PairingMode
                0x000000002000512e        0x1 C:\Users\19156\Desktop\DualModeKeyboard\LIB\libCH57xBLE.a(gapbondmgr.o)
 .sdata.gapBond_Valid
                0x000000002000512f        0x1 C:\Users\19156\Desktop\DualModeKeyboard\LIB\libCH57xBLE.a(gapbondmgr.o)
                0x000000002000512f                gapBond_Valid
 .sdata.gapCentralTaskID
                0x0000000020005130        0x1 C:\Users\19156\Desktop\DualModeKeyboard\LIB\libCH57xBLE.a(role.o)
                0x0000000020005130                gapCentralTaskID
 .sdata.gapRole_AdvEnabled
                0x0000000020005131        0x1 C:\Users\19156\Desktop\DualModeKeyboard\LIB\libCH57xBLE.a(role.o)
                0x0000000020005131                gapRole_AdvEnabled
 .sdata.gapRole_AdvertDataLen
                0x0000000020005132        0x1 C:\Users\19156\Desktop\DualModeKeyboard\LIB\libCH57xBLE.a(role.o)
                0x0000000020005132                gapRole_AdvertDataLen
 *fill*         0x0000000020005133        0x1 
 .sdata.gapRole_MaxConnInterval
                0x0000000020005134        0x2 C:\Users\19156\Desktop\DualModeKeyboard\LIB\libCH57xBLE.a(role.o)
                0x0000000020005134                gapRole_MaxConnInterval
 .sdata.gapRole_MinConnInterval
                0x0000000020005136        0x2 C:\Users\19156\Desktop\DualModeKeyboard\LIB\libCH57xBLE.a(role.o)
                0x0000000020005136                gapRole_MinConnInterval
 .sdata.gapRole_TaskID
                0x0000000020005138        0x1 C:\Users\19156\Desktop\DualModeKeyboard\LIB\libCH57xBLE.a(role.o)
                0x0000000020005138                gapRole_TaskID
 *(.gnu.linkonce.s.*)
                0x0000000020005140                . = ALIGN (0x8)
 *fill*         0x0000000020005139        0x7 
 *(.srodata.cst16)
 *(.srodata.cst8)
 *(.srodata.cst4)
 *(.srodata.cst2)
 *(.srodata .srodata.*)
                0x0000000020005140                . = ALIGN (0x4)
                0x0000000020005140                PROVIDE (_edata = .)

.bss            0x0000000020005140     0x2048 load address 0x000000000001eb2c
                0x0000000020005140                . = ALIGN (0x4)
                0x0000000020005140                PROVIDE (_sbss = .)
 *(.sbss*)
 .sbss.Int32K_Tune_FLASH
                0x0000000020005140        0x2 ./StdPeriphDriver/CH57x_clk.o
                0x0000000020005140                Int32K_Tune_FLASH
 .sbss.Int32K_Tune_RAM
                0x0000000020005142        0x2 ./StdPeriphDriver/CH57x_clk.o
                0x0000000020005142                Int32K_Tune_RAM
 .sbss.pEP0_RAM_Addr
                0x0000000020005144        0x4 ./StdPeriphDriver/CH57x_usbdev.o
                0x0000000020005144                pEP0_RAM_Addr
 .sbss.pEP1_RAM_Addr
                0x0000000020005148        0x4 ./StdPeriphDriver/CH57x_usbdev.o
                0x0000000020005148                pEP1_RAM_Addr
 .sbss.pEP2_RAM_Addr
                0x000000002000514c        0x4 ./StdPeriphDriver/CH57x_usbdev.o
                0x000000002000514c                pEP2_RAM_Addr
 .sbss.pEP3_RAM_Addr
                0x0000000020005150        0x4 ./StdPeriphDriver/CH57x_usbdev.o
                0x0000000020005150                pEP3_RAM_Addr
 .sbss.battCriticalLevel
                0x0000000020005154        0x1 ./Profile/battservice.o
 *fill*         0x0000000020005155        0x3 
 .sbss.battServiceCB
                0x0000000020005158        0x4 ./Profile/battservice.o
 .sbss.battServiceCalcCB
                0x000000002000515c        0x4 ./Profile/battservice.o
 .sbss.battServiceSetupCB
                0x0000000020005160        0x4 ./Profile/battservice.o
 .sbss.battServiceTeardownCB
                0x0000000020005164        0x4 ./Profile/battservice.o
 .sbss.devInfoSystemId
                0x0000000020005168        0x8 ./Profile/devinfoservice.o
 .sbss.gapConnHandle
                0x0000000020005170        0x2 ./Profile/hiddev.o
 .sbss.hidDevConnSecure
                0x0000000020005172        0x1 ./Profile/hiddev.o
 *fill*         0x0000000020005173        0x1 
 .sbss.hidDevGapState
                0x0000000020005174        0x4 ./Profile/hiddev.o
 .sbss.hidDevRptTblLen
                0x0000000020005178        0x1 ./Profile/hiddev.o
 .sbss.hidDevTaskId
                0x0000000020005179        0x1 ./Profile/hiddev.o
                0x0000000020005179                hidDevTaskId
 *fill*         0x000000002000517a        0x2 
 .sbss.pHidDevCB
                0x000000002000517c        0x4 ./Profile/hiddev.o
 .sbss.pHidDevCfg
                0x0000000020005180        0x4 ./Profile/hiddev.o
 .sbss.pHidDevRptTbl
                0x0000000020005184        0x4 ./Profile/hiddev.o
 .sbss.pairingStatus
                0x0000000020005188        0x1 ./Profile/hiddev.o
 .sbss.hidControlPoint
                0x0000000020005189        0x1 ./Profile/hidkbdservice.o
 .sbss.hidReportBootKeyIn
                0x000000002000518a        0x1 ./Profile/hidkbdservice.o
 .sbss.hidReportBootKeyOut
                0x000000002000518b        0x1 ./Profile/hidkbdservice.o
 .sbss.hidReportConsumerIn
                0x000000002000518c        0x1 ./Profile/hidkbdservice.o
 .sbss.hidReportFeature
                0x000000002000518d        0x1 ./Profile/hidkbdservice.o
 .sbss.hidReportKeyIn
                0x000000002000518e        0x1 ./Profile/hidkbdservice.o
 .sbss.hidReportLedOut
                0x000000002000518f        0x1 ./Profile/hidkbdservice.o
 .sbss.include  0x0000000020005190        0x2 ./Profile/hidkbdservice.o
 *fill*         0x0000000020005192        0x2 
 .sbss.scanIntervalWindow
                0x0000000020005194        0x4 ./Profile/scanparamservice.o
 .sbss.scanParamRefresh
                0x0000000020005198        0x1 ./Profile/scanparamservice.o
 *fill*         0x0000000020005199        0x3 
 .sbss.scanParamServiceCB
                0x000000002000519c        0x4 ./Profile/scanparamservice.o
 .sbss.halTaskID
                0x00000000200051a0        0x1 ./HAL/MCU.o
                0x00000000200051a0                halTaskID
 *fill*         0x00000000200051a1        0x3 
 .sbss.RTCTigFlag
                0x00000000200051a4        0x4 ./HAL/RTC.o
                0x00000000200051a4                RTCTigFlag
 .sbss.i.4091   0x00000000200051a8        0x1 ./APP/app_ble.o
 .sbss.DevConfig
                0x00000000200051a9        0x1 ./APP/app_usb.o
                0x00000000200051a9                DevConfig
 .sbss.Idle_Value
                0x00000000200051aa        0x1 ./APP/app_usb.o
                0x00000000200051aa                Idle_Value
 .sbss.Ready    0x00000000200051ab        0x1 ./APP/app_usb.o
                0x00000000200051ab                Ready
 .sbss.Report_Value
                0x00000000200051ac        0x1 ./APP/app_usb.o
                0x00000000200051ac                Report_Value
 .sbss.SetupReqCode
                0x00000000200051ad        0x1 ./APP/app_usb.o
                0x00000000200051ad                SetupReqCode
 .sbss.SetupReqLen
                0x00000000200051ae        0x2 ./APP/app_usb.o
                0x00000000200051ae                SetupReqLen
 .sbss.USB_SleepStatus
                0x00000000200051b0        0x1 ./APP/app_usb.o
                0x00000000200051b0                USB_SleepStatus
 *fill*         0x00000000200051b1        0x3 
 .sbss.pDescr   0x00000000200051b4        0x4 ./APP/app_usb.o
                0x00000000200051b4                pDescr
 .sbss.Key_c_decnt
                0x00000000200051b8        0x1 ./APP/keyin.o
                0x00000000200051b8                Key_c_decnt
 .sbss.Key_c_encnt
                0x00000000200051b9        0x1 ./APP/keyin.o
                0x00000000200051b9                Key_c_encnt
 *fill*         0x00000000200051ba        0x2 
 .sbss.Key_c_tricnt
                0x00000000200051bc        0x4 ./APP/keyin.o
                0x00000000200051bc                Key_c_tricnt
 .sbss.Key_ctrl_decnt
                0x00000000200051c0        0x1 ./APP/keyin.o
                0x00000000200051c0                Key_ctrl_decnt
 .sbss.Key_ctrl_encnt
                0x00000000200051c1        0x1 ./APP/keyin.o
                0x00000000200051c1                Key_ctrl_encnt
 *fill*         0x00000000200051c2        0x2 
 .sbss.Key_ctrl_tricnt
                0x00000000200051c4        0x4 ./APP/keyin.o
                0x00000000200051c4                Key_ctrl_tricnt
 .sbss.Key_enter_decnt
                0x00000000200051c8        0x1 ./APP/keyin.o
                0x00000000200051c8                Key_enter_decnt
 .sbss.Key_enter_encnt
                0x00000000200051c9        0x1 ./APP/keyin.o
                0x00000000200051c9                Key_enter_encnt
 *fill*         0x00000000200051ca        0x2 
 .sbss.Key_enter_tricnt
                0x00000000200051cc        0x4 ./APP/keyin.o
                0x00000000200051cc                Key_enter_tricnt
 .sbss.Key_rbt_decnt
                0x00000000200051d0        0x1 ./APP/keyin.o
                0x00000000200051d0                Key_rbt_decnt
 .sbss.Key_rbt_encnt
                0x00000000200051d1        0x1 ./APP/keyin.o
                0x00000000200051d1                Key_rbt_encnt
 *fill*         0x00000000200051d2        0x2 
 .sbss.Key_rbt_tricnt
                0x00000000200051d4        0x4 ./APP/keyin.o
                0x00000000200051d4                Key_rbt_tricnt
 .sbss.Key_rl_decnt
                0x00000000200051d8        0x1 ./APP/keyin.o
                0x00000000200051d8                Key_rl_decnt
 .sbss.Key_rl_encnt
                0x00000000200051d9        0x1 ./APP/keyin.o
                0x00000000200051d9                Key_rl_encnt
 *fill*         0x00000000200051da        0x2 
 .sbss.Key_rl_tricnt
                0x00000000200051dc        0x4 ./APP/keyin.o
                0x00000000200051dc                Key_rl_tricnt
 .sbss.Key_rr_decnt
                0x00000000200051e0        0x1 ./APP/keyin.o
                0x00000000200051e0                Key_rr_decnt
 .sbss.Key_rr_encnt
                0x00000000200051e1        0x1 ./APP/keyin.o
                0x00000000200051e1                Key_rr_encnt
 *fill*         0x00000000200051e2        0x2 
 .sbss.Key_rr_tricnt
                0x00000000200051e4        0x4 ./APP/keyin.o
                0x00000000200051e4                Key_rr_tricnt
 .sbss.Key_v_decnt
                0x00000000200051e8        0x1 ./APP/keyin.o
                0x00000000200051e8                Key_v_decnt
 .sbss.Key_v_encnt
                0x00000000200051e9        0x1 ./APP/keyin.o
                0x00000000200051e9                Key_v_encnt
 *fill*         0x00000000200051ea        0x2 
 .sbss.Key_v_tricnt
                0x00000000200051ec        0x4 ./APP/keyin.o
                0x00000000200051ec                Key_v_tricnt
 .sbss.Key_x_decnt
                0x00000000200051f0        0x1 ./APP/keyin.o
                0x00000000200051f0                Key_x_decnt
 .sbss.Key_x_encnt
                0x00000000200051f1        0x1 ./APP/keyin.o
                0x00000000200051f1                Key_x_encnt
 *fill*         0x00000000200051f2        0x2 
 .sbss.Key_x_tricnt
                0x00000000200051f4        0x4 ./APP/keyin.o
                0x00000000200051f4                Key_x_tricnt
 .sbss.Keymap   0x00000000200051f8        0x1 ./APP/keyin.o
 .sbss.Keymap_o
                0x00000000200051f9        0x1 ./APP/keyin.o
 .sbss.dbc_push_cnt_c.4091
                0x00000000200051fa        0x1 ./APP/keyin.o
 .sbss.dbc_push_cnt_ctrl.4095
                0x00000000200051fb        0x1 ./APP/keyin.o
 .sbss.dbc_push_cnt_enter.4097
                0x00000000200051fc        0x1 ./APP/keyin.o
 .sbss.dbc_push_cnt_left.4105
                0x00000000200051fd        0x1 ./APP/keyin.o
 .sbss.dbc_push_cnt_rbt.4099
                0x00000000200051fe        0x1 ./APP/keyin.o
 .sbss.dbc_push_cnt_right.4107
                0x00000000200051ff        0x1 ./APP/keyin.o
 .sbss.dbc_push_cnt_v.4093
                0x0000000020005200        0x1 ./APP/keyin.o
 .sbss.dbc_push_cnt_x.4089
                0x0000000020005201        0x1 ./APP/keyin.o
 .sbss.dbc_release_cnt_c.4092
                0x0000000020005202        0x1 ./APP/keyin.o
 .sbss.dbc_release_cnt_ctrl.4096
                0x0000000020005203        0x1 ./APP/keyin.o
 .sbss.dbc_release_cnt_enter.4098
                0x0000000020005204        0x1 ./APP/keyin.o
 .sbss.dbc_release_cnt_left.4106
                0x0000000020005205        0x1 ./APP/keyin.o
 .sbss.dbc_release_cnt_rbt.4100
                0x0000000020005206        0x1 ./APP/keyin.o
 .sbss.dbc_release_cnt_right.4108
                0x0000000020005207        0x1 ./APP/keyin.o
 .sbss.dbc_release_cnt_v.4094
                0x0000000020005208        0x1 ./APP/keyin.o
 .sbss.dbc_release_cnt_x.4090
                0x0000000020005209        0x1 ./APP/keyin.o
 .sbss.enco_left
                0x000000002000520a        0x1 ./APP/keyin.o
                0x000000002000520a                enco_left
 .sbss.enco_right
                0x000000002000520b        0x1 ./APP/keyin.o
                0x000000002000520b                enco_right
 .sbss.Protocol_SW
                0x000000002000520c        0x4 ./APP/protocol.o
                0x000000002000520c                Protocol_SW
 .sbss.ReportBuf_Consumer
                0x0000000020005210        0x4 ./APP/protocol.o
                0x0000000020005210                ReportBuf_Consumer
 .sbss.ReportBuf_Keyboard
                0x0000000020005214        0x8 ./APP/protocol.o
                0x0000000020005214                ReportBuf_Keyboard
 .sbss.old_protocolsw.4060
                0x000000002000521c        0x4 ./APP/protocol.o
 .sbss.msg_qHead
                0x0000000020005220        0x4 C:\Users\19156\Desktop\DualModeKeyboard\LIB\libCH57xBLE.a(message.o)
                0x0000000020005220                msg_qHead
 .sbss.EventsArr
                0x0000000020005224        0x4 C:\Users\19156\Desktop\DualModeKeyboard\LIB\libCH57xBLE.a(tmos.o)
                0x0000000020005224                EventsArr
 .sbss.Tune32K_FLASH
                0x0000000020005228        0x2 C:\Users\19156\Desktop\DualModeKeyboard\LIB\libCH57xBLE.a(tmos.o)
                0x0000000020005228                Tune32K_FLASH
 .sbss.Tune32K_RAM
                0x000000002000522a        0x2 C:\Users\19156\Desktop\DualModeKeyboard\LIB\libCH57xBLE.a(tmos.o)
                0x000000002000522a                Tune32K_RAM
 .sbss.cbTimersHead
                0x000000002000522c        0x4 C:\Users\19156\Desktop\DualModeKeyboard\LIB\libCH57xBLE.a(tmos.o)
                0x000000002000522c                cbTimersHead
 .sbss.eventsClear
                0x0000000020005230        0x2 C:\Users\19156\Desktop\DualModeKeyboard\LIB\libCH57xBLE.a(tmos.o)
                0x0000000020005230                eventsClear
 *fill*         0x0000000020005232        0x2 
 .sbss.pfnTimerCBs
                0x0000000020005234        0x4 C:\Users\19156\Desktop\DualModeKeyboard\LIB\libCH57xBLE.a(tmos.o)
                0x0000000020005234                pfnTimerCBs
 .sbss.taskHead
                0x0000000020005238        0x4 C:\Users\19156\Desktop\DualModeKeyboard\LIB\libCH57xBLE.a(tmos.o)
                0x0000000020005238                taskHead
 .sbss.tasksArr
                0x000000002000523c        0x4 C:\Users\19156\Desktop\DualModeKeyboard\LIB\libCH57xBLE.a(tmos.o)
                0x000000002000523c                tasksArr
 .sbss.fnGetClockCBs
                0x0000000020005240        0x4 C:\Users\19156\Desktop\DualModeKeyboard\LIB\libCH57xBLE.a(tmos_hw.o)
                0x0000000020005240                fnGetClockCBs
 .sbss.gapCurrentRandomAddr
                0x0000000020005244        0x6 C:\Users\19156\Desktop\DualModeKeyboard\LIB\libCH57xBLE.a(gap.o)
 *fill*         0x000000002000524a        0x2 
 .sbss.pEstLink
                0x000000002000524c        0x4 C:\Users\19156\Desktop\DualModeKeyboard\LIB\libCH57xBLE.a(gap.o)
                0x000000002000524c                pEstLink
 .sbss.pGapAdvertState
                0x0000000020005250        0x4 C:\Users\19156\Desktop\DualModeKeyboard\LIB\libCH57xBLE.a(gap.o)
                0x0000000020005250                pGapAdvertState
 .sbss.pfnCentralCBs
                0x0000000020005254        0x4 C:\Users\19156\Desktop\DualModeKeyboard\LIB\libCH57xBLE.a(gap.o)
 .sbss.pfnCentralConnCBs
                0x0000000020005258        0x4 C:\Users\19156\Desktop\DualModeKeyboard\LIB\libCH57xBLE.a(gap.o)
 .sbss.pfnPeripheralCBs
                0x000000002000525c        0x4 C:\Users\19156\Desktop\DualModeKeyboard\LIB\libCH57xBLE.a(gap.o)
 .sbss.pfnPeripheralConnCBs
                0x0000000020005260        0x4 C:\Users\19156\Desktop\DualModeKeyboard\LIB\libCH57xBLE.a(gap.o)
 .sbss.slaveUpdateReq
                0x0000000020005264        0x8 C:\Users\19156\Desktop\DualModeKeyboard\LIB\libCH57xBLE.a(gap.o)
 .sbss.terminateAllTaskID
                0x000000002000526c        0x1 C:\Users\19156\Desktop\DualModeKeyboard\LIB\libCH57xBLE.a(gap.o)
 .sbss.terminateReason
                0x000000002000526d        0x1 C:\Users\19156\Desktop\DualModeKeyboard\LIB\libCH57xBLE.a(gap.o)
 *fill*         0x000000002000526e        0x2 
 .sbss.gapCentralConnCBs
                0x0000000020005270        0x8 C:\Users\19156\Desktop\DualModeKeyboard\LIB\libCH57xBLE.a(gap_central.o)
                0x0000000020005270                gapCentralConnCBs
 .sbss.gapMaxScanResponses
                0x0000000020005278        0x1 C:\Users\19156\Desktop\DualModeKeyboard\LIB\libCH57xBLE.a(gap_central.o)
                0x0000000020005278                gapMaxScanResponses
 *fill*         0x0000000020005279        0x3 
 .sbss.pGapDiscReq
                0x000000002000527c        0x4 C:\Users\19156\Desktop\DualModeKeyboard\LIB\libCH57xBLE.a(gap_central.o)
                0x000000002000527c                pGapDiscReq
 .sbss.pGapScanRecs
                0x0000000020005280        0x4 C:\Users\19156\Desktop\DualModeKeyboard\LIB\libCH57xBLE.a(gap_central.o)
                0x0000000020005280                pGapScanRecs
 .sbss.gapLimitedAdvertisingTimeout
                0x0000000020005284        0x2 C:\Users\19156\Desktop\DualModeKeyboard\LIB\libCH57xBLE.a(gap_peripheral.o)
 *fill*         0x0000000020005286        0x2 
 .sbss.gapPeripheralConnCBs
                0x0000000020005288        0x4 C:\Users\19156\Desktop\DualModeKeyboard\LIB\libCH57xBLE.a(gap_peripheral.o)
 .sbss.pGapAdData
                0x000000002000528c        0x4 C:\Users\19156\Desktop\DualModeKeyboard\LIB\libCH57xBLE.a(gap_peripheral.o)
 .sbss.pGapAdvTokens
                0x0000000020005290        0x4 C:\Users\19156\Desktop\DualModeKeyboard\LIB\libCH57xBLE.a(gap_peripheral.o)
 .sbss.pGapScanRspData
                0x0000000020005294        0x4 C:\Users\19156\Desktop\DualModeKeyboard\LIB\libCH57xBLE.a(gap_peripheral.o)
 .sbss.appearance
                0x0000000020005298        0x2 C:\Users\19156\Desktop\DualModeKeyboard\LIB\libCH57xBLE.a(gapgattserver.o)
 .sbss.ggsAddService
                0x000000002000529a        0x1 C:\Users\19156\Desktop\DualModeKeyboard\LIB\libCH57xBLE.a(gapgattserver.o)
 *fill*         0x000000002000529b        0x1 
 .sbss.ggs_AppCBs
                0x000000002000529c        0x4 C:\Users\19156\Desktop\DualModeKeyboard\LIB\libCH57xBLE.a(gapgattserver.o)
 .sbss.gattTaskID
                0x00000000200052a0        0x1 C:\Users\19156\Desktop\DualModeKeyboard\LIB\libCH57xBLE.a(gatt.o)
                0x00000000200052a0                gattTaskID
 *fill*         0x00000000200052a1        0x3 
 .sbss.pfnClientProcessMsgCB
                0x00000000200052a4        0x4 C:\Users\19156\Desktop\DualModeKeyboard\LIB\libCH57xBLE.a(gatt.o)
                0x00000000200052a4                pfnClientProcessMsgCB
 .sbss.pfnServerProcessMsgCB
                0x00000000200052a8        0x4 C:\Users\19156\Desktop\DualModeKeyboard\LIB\libCH57xBLE.a(gatt.o)
                0x00000000200052a8                pfnServerProcessMsgCB
 .sbss.attrLen  0x00000000200052ac        0x2 C:\Users\19156\Desktop\DualModeKeyboard\LIB\libCH57xBLE.a(gattservapp.o)
 .sbss.gattAddService
                0x00000000200052ae        0x1 C:\Users\19156\Desktop\DualModeKeyboard\LIB\libCH57xBLE.a(gattservapp.o)
 *fill*         0x00000000200052af        0x1 
 .sbss.indCharCfg
                0x00000000200052b0        0x4 C:\Users\19156\Desktop\DualModeKeyboard\LIB\libCH57xBLE.a(gattservapp.o)
 .sbss.pAttrValue
                0x00000000200052b4        0x4 C:\Users\19156\Desktop\DualModeKeyboard\LIB\libCH57xBLE.a(gattservapp.o)
 .sbss.pServiceList
                0x00000000200052b8        0x4 C:\Users\19156\Desktop\DualModeKeyboard\LIB\libCH57xBLE.a(gattservapp.o)
 .sbss.prepareWritesTbl
                0x00000000200052bc        0x4 C:\Users\19156\Desktop\DualModeKeyboard\LIB\libCH57xBLE.a(gattservapp.o)
 .sbss.serverInfoTbl
                0x00000000200052c0        0x4 C:\Users\19156\Desktop\DualModeKeyboard\LIB\libCH57xBLE.a(gattservapp.o)
 .sbss.serviceCBsList
                0x00000000200052c4        0x4 C:\Users\19156\Desktop\DualModeKeyboard\LIB\libCH57xBLE.a(gattservapp.o)
 .sbss.l2capChannels
                0x00000000200052c8        0x4 C:\Users\19156\Desktop\DualModeKeyboard\LIB\libCH57xBLE.a(l2cap.o)
                0x00000000200052c8                l2capChannels
 .sbss.l2capFlowCtrlMode
                0x00000000200052cc        0x1 C:\Users\19156\Desktop\DualModeKeyboard\LIB\libCH57xBLE.a(l2cap.o)
                0x00000000200052cc                l2capFlowCtrlMode
 .sbss.l2capId  0x00000000200052cd        0x1 C:\Users\19156\Desktop\DualModeKeyboard\LIB\libCH57xBLE.a(l2cap.o)
                0x00000000200052cd                l2capId
 .sbss.l2capMtuSize
                0x00000000200052ce        0x2 C:\Users\19156\Desktop\DualModeKeyboard\LIB\libCH57xBLE.a(l2cap.o)
                0x00000000200052ce                l2capMtuSize
 .sbss.l2capNumChannels
                0x00000000200052d0        0x1 C:\Users\19156\Desktop\DualModeKeyboard\LIB\libCH57xBLE.a(l2cap.o)
                0x00000000200052d0                l2capNumChannels
 .sbss.l2capNumCoChannels
                0x00000000200052d1        0x1 C:\Users\19156\Desktop\DualModeKeyboard\LIB\libCH57xBLE.a(l2cap.o)
                0x00000000200052d1                l2capNumCoChannels
 .sbss.l2capNumDataPkts
                0x00000000200052d2        0x1 C:\Users\19156\Desktop\DualModeKeyboard\LIB\libCH57xBLE.a(l2cap.o)
                0x00000000200052d2                l2capNumDataPkts
 .sbss.l2capNumPSM
                0x00000000200052d3        0x1 C:\Users\19156\Desktop\DualModeKeyboard\LIB\libCH57xBLE.a(l2cap.o)
                0x00000000200052d3                l2capNumPSM
 .sbss.l2capNumRecvDataPkts
                0x00000000200052d4        0x1 C:\Users\19156\Desktop\DualModeKeyboard\LIB\libCH57xBLE.a(l2cap.o)
                0x00000000200052d4                l2capNumRecvDataPkts
 *fill*         0x00000000200052d5        0x3 
 .sbss.l2capPsm
                0x00000000200052d8        0x4 C:\Users\19156\Desktop\DualModeKeyboard\LIB\libCH57xBLE.a(l2cap.o)
                0x00000000200052d8                l2capPsm
 .sbss.l2capTaskID
                0x00000000200052dc        0x1 C:\Users\19156\Desktop\DualModeKeyboard\LIB\libCH57xBLE.a(l2cap.o)
                0x00000000200052dc                l2capTaskID
 *fill*         0x00000000200052dd        0x3 
 .sbss.l2capUserConfig
                0x00000000200052e0        0x2 C:\Users\19156\Desktop\DualModeKeyboard\LIB\libCH57xBLE.a(l2cap.o)
                0x00000000200052e0                l2capUserConfig
 .sbss.nextIdx  0x00000000200052e2        0x1 C:\Users\19156\Desktop\DualModeKeyboard\LIB\libCH57xBLE.a(l2cap.o)
                0x00000000200052e2                nextIdx
 *fill*         0x00000000200052e3        0x1 
 .sbss.linkDB   0x00000000200052e4        0x4 C:\Users\19156\Desktop\DualModeKeyboard\LIB\libCH57xBLE.a(linkdb.o)
                0x00000000200052e4                linkDB
 .sbss.pSmGenKey
                0x00000000200052e8        0x4 C:\Users\19156\Desktop\DualModeKeyboard\LIB\libCH57xBLE.a(sm.o)
                0x00000000200052e8                pSmGenKey
 .sbss.pfnInitiatorCBs
                0x00000000200052ec        0x4 C:\Users\19156\Desktop\DualModeKeyboard\LIB\libCH57xBLE.a(sm.o)
                0x00000000200052ec                pfnInitiatorCBs
 .sbss.pfnResponderCBs
                0x00000000200052f0        0x4 C:\Users\19156\Desktop\DualModeKeyboard\LIB\libCH57xBLE.a(sm.o)
                0x00000000200052f0                pfnResponderCBs
 .sbss.fragment.4230
                0x00000000200052f4        0x1 C:\Users\19156\Desktop\DualModeKeyboard\LIB\libCH57xBLE.a(host_input.o)
 *fill*         0x00000000200052f5        0x3 
 .sbss.gBleHostPara
                0x00000000200052f8        0x6 C:\Users\19156\Desktop\DualModeKeyboard\LIB\libCH57xBLE.a(host_input.o)
                0x00000000200052f8                gBleHostPara
 .sbss.l2cap_fragment_length
                0x00000000200052fe        0x2 C:\Users\19156\Desktop\DualModeKeyboard\LIB\libCH57xBLE.a(host_input.o)
                0x00000000200052fe                l2cap_fragment_length
 .sbss.l2cap_head_length
                0x0000000020005300        0x2 C:\Users\19156\Desktop\DualModeKeyboard\LIB\libCH57xBLE.a(host_input.o)
                0x0000000020005300                l2cap_head_length
 *fill*         0x0000000020005302        0x2 
 .sbss.pL2capDataBuf
                0x0000000020005304        0x4 C:\Users\19156\Desktop\DualModeKeyboard\LIB\libCH57xBLE.a(host_input.o)
                0x0000000020005304                pL2capDataBuf
 .sbss.llRecvDataDisable
                0x0000000020005308        0x4 C:\Users\19156\Desktop\DualModeKeyboard\LIB\libCH57xBLE.a(ll_connect.o)
                0x0000000020005308                llRecvDataDisable
 .sbss.pfnConnectEventCBs
                0x000000002000530c        0x4 C:\Users\19156\Desktop\DualModeKeyboard\LIB\libCH57xBLE.a(ll_connect.o)
                0x000000002000530c                pfnConnectEventCBs
 .sbss.CrcErrorCount
                0x0000000020005310        0x2 C:\Users\19156\Desktop\DualModeKeyboard\LIB\libCH57xBLE.a(ll_slave.o)
                0x0000000020005310                CrcErrorCount
 .sbss.md_timeout
                0x0000000020005312        0x2 C:\Users\19156\Desktop\DualModeKeyboard\LIB\libCH57xBLE.a(ll_slave.o)
                0x0000000020005312                md_timeout
 .sbss.reSendCount
                0x0000000020005314        0x2 C:\Users\19156\Desktop\DualModeKeyboard\LIB\libCH57xBLE.a(ll_slave.o)
                0x0000000020005314                reSendCount
 .sbss.recvTimeoutCount
                0x0000000020005316        0x2 C:\Users\19156\Desktop\DualModeKeyboard\LIB\libCH57xBLE.a(ll_slave.o)
                0x0000000020005316                recvTimeoutCount
 .sbss.gptrAESReg
                0x0000000020005318        0x4 C:\Users\19156\Desktop\DualModeKeyboard\LIB\libCH57xBLE.a(aes.o)
                0x0000000020005318                gptrAESReg
 .sbss.gptrBBReg
                0x000000002000531c        0x4 C:\Users\19156\Desktop\DualModeKeyboard\LIB\libCH57xBLE.a(bb.o)
                0x000000002000531c                gptrBBReg
 .sbss.gptrDMAReg
                0x0000000020005320        0x4 C:\Users\19156\Desktop\DualModeKeyboard\LIB\libCH57xBLE.a(dma.o)
                0x0000000020005320                gptrDMAReg
 .sbss.cfo_comp
                0x0000000020005324        0x2 C:\Users\19156\Desktop\DualModeKeyboard\LIB\libCH57xBLE.a(ip.o)
                0x0000000020005324                cfo_comp
 *fill*         0x0000000020005326        0x2 
 .sbss.gPaControl
                0x0000000020005328        0x4 C:\Users\19156\Desktop\DualModeKeyboard\LIB\libCH57xBLE.a(ip.o)
                0x0000000020005328                gPaControl
 .sbss.gptrLLEReg
                0x000000002000532c        0x4 C:\Users\19156\Desktop\DualModeKeyboard\LIB\libCH57xBLE.a(lle.o)
                0x000000002000532c                gptrLLEReg
 .sbss.ftuneFlag
                0x0000000020005330        0x4 C:\Users\19156\Desktop\DualModeKeyboard\LIB\libCH57xBLE.a(rfend.o)
                0x0000000020005330                ftuneFlag
 .sbss.gModeAdc
                0x0000000020005334        0x1 C:\Users\19156\Desktop\DualModeKeyboard\LIB\libCH57xBLE.a(rfend.o)
                0x0000000020005334                gModeAdc
 *fill*         0x0000000020005335        0x3 
 .sbss.gptrRFENDReg
                0x0000000020005338        0x4 C:\Users\19156\Desktop\DualModeKeyboard\LIB\libCH57xBLE.a(rfend.o)
                0x0000000020005338                gptrRFENDReg
 .sbss.nCO2401  0x000000002000533c        0x1 C:\Users\19156\Desktop\DualModeKeyboard\LIB\libCH57xBLE.a(rfend.o)
                0x000000002000533c                nCO2401
 .sbss.nCO2440  0x000000002000533d        0x1 C:\Users\19156\Desktop\DualModeKeyboard\LIB\libCH57xBLE.a(rfend.o)
                0x000000002000533d                nCO2440
 .sbss.nCO2480  0x000000002000533e        0x1 C:\Users\19156\Desktop\DualModeKeyboard\LIB\libCH57xBLE.a(rfend.o)
                0x000000002000533e                nCO2480
 .sbss.nGA2401  0x000000002000533f        0x1 C:\Users\19156\Desktop\DualModeKeyboard\LIB\libCH57xBLE.a(rfend.o)
                0x000000002000533f                nGA2401
 .sbss.nGA2440  0x0000000020005340        0x1 C:\Users\19156\Desktop\DualModeKeyboard\LIB\libCH57xBLE.a(rfend.o)
                0x0000000020005340                nGA2440
 .sbss.nGA2480  0x0000000020005341        0x1 C:\Users\19156\Desktop\DualModeKeyboard\LIB\libCH57xBLE.a(rfend.o)
                0x0000000020005341                nGA2480
 .sbss.fragment.6323
                0x0000000020005342        0x1 C:\Users\19156\Desktop\DualModeKeyboard\LIB\libCH57xBLE.a(ctl_input.o)
 .sbss.autoSyncResolveList
                0x0000000020005343        0x1 C:\Users\19156\Desktop\DualModeKeyboard\LIB\libCH57xBLE.a(gapbondmgr.o)
 .sbss.autoSyncWhiteList
                0x0000000020005344        0x1 C:\Users\19156\Desktop\DualModeKeyboard\LIB\libCH57xBLE.a(gapbondmgr.o)
 .sbss.bondIdx  0x0000000020005345        0x1 C:\Users\19156\Desktop\DualModeKeyboard\LIB\libCH57xBLE.a(gapbondmgr.o)
 *fill*         0x0000000020005346        0x2 
 .sbss.bonds    0x0000000020005348        0x4 C:\Users\19156\Desktop\DualModeKeyboard\LIB\libCH57xBLE.a(gapbondmgr.o)
 .sbss.eraseAllBonds
                0x000000002000534c        0x1 C:\Users\19156\Desktop\DualModeKeyboard\LIB\libCH57xBLE.a(gapbondmgr.o)
 .sbss.gapBondMax
                0x000000002000534d        0x1 C:\Users\19156\Desktop\DualModeKeyboard\LIB\libCH57xBLE.a(gapbondmgr.o)
 .sbss.gapBondMgr_TaskID
                0x000000002000534e        0x1 C:\Users\19156\Desktop\DualModeKeyboard\LIB\libCH57xBLE.a(gapbondmgr.o)
 *fill*         0x000000002000534f        0x1 
 .sbss.gapBondSignAddr
                0x0000000020005350        0x7 C:\Users\19156\Desktop\DualModeKeyboard\LIB\libCH57xBLE.a(gapbondmgr.o)
                0x0000000020005350                gapBondSignAddr
 .sbss.gapBondSign_Valid
                0x0000000020005357        0x1 C:\Users\19156\Desktop\DualModeKeyboard\LIB\libCH57xBLE.a(gapbondmgr.o)
                0x0000000020005357                gapBondSign_Valid
 .sbss.gapBond_AutoFail
                0x0000000020005358        0x1 C:\Users\19156\Desktop\DualModeKeyboard\LIB\libCH57xBLE.a(gapbondmgr.o)
 .sbss.gapBond_Cent_AuthReq
                0x0000000020005359        0x1 C:\Users\19156\Desktop\DualModeKeyboard\LIB\libCH57xBLE.a(gapbondmgr.o)
 .sbss.gapBond_Cent_IOCap
                0x000000002000535a        0x1 C:\Users\19156\Desktop\DualModeKeyboard\LIB\libCH57xBLE.a(gapbondmgr.o)
 .sbss.gapBond_Cent_KeyDistList
                0x000000002000535b        0x1 C:\Users\19156\Desktop\DualModeKeyboard\LIB\libCH57xBLE.a(gapbondmgr.o)
 .sbss.gapBond_Cent_OOBDataFlag
                0x000000002000535c        0x1 C:\Users\19156\Desktop\DualModeKeyboard\LIB\libCH57xBLE.a(gapbondmgr.o)
 *fill*         0x000000002000535d        0x3 
 .sbss.gapBond_Cent_Passcode
                0x0000000020005360        0x4 C:\Users\19156\Desktop\DualModeKeyboard\LIB\libCH57xBLE.a(gapbondmgr.o)
 .sbss.gapBond_Invalid
                0x0000000020005364        0x1 C:\Users\19156\Desktop\DualModeKeyboard\LIB\libCH57xBLE.a(gapbondmgr.o)
                0x0000000020005364                gapBond_Invalid
 .sbss.gapBond_Peri_AuthReq
                0x0000000020005365        0x1 C:\Users\19156\Desktop\DualModeKeyboard\LIB\libCH57xBLE.a(gapbondmgr.o)
 .sbss.gapBond_Peri_IOCap
                0x0000000020005366        0x1 C:\Users\19156\Desktop\DualModeKeyboard\LIB\libCH57xBLE.a(gapbondmgr.o)
 .sbss.gapBond_Peri_KeyDistList
                0x0000000020005367        0x1 C:\Users\19156\Desktop\DualModeKeyboard\LIB\libCH57xBLE.a(gapbondmgr.o)
 .sbss.gapBond_Peri_OOBDataFlag
                0x0000000020005368        0x1 C:\Users\19156\Desktop\DualModeKeyboard\LIB\libCH57xBLE.a(gapbondmgr.o)
 *fill*         0x0000000020005369        0x3 
 .sbss.gapBond_Peri_Passcode
                0x000000002000536c        0x4 C:\Users\19156\Desktop\DualModeKeyboard\LIB\libCH57xBLE.a(gapbondmgr.o)
 .sbss.gattCCFlag
                0x0000000020005370        0x1 C:\Users\19156\Desktop\DualModeKeyboard\LIB\libCH57xBLE.a(gapbondmgr.o)
 *fill*         0x0000000020005371        0x3 
 .sbss.pAttr.4291
                0x0000000020005374        0x4 C:\Users\19156\Desktop\DualModeKeyboard\LIB\libCH57xBLE.a(gapbondmgr.o)
 .sbss.pAuthEvt
                0x0000000020005378        0x4 C:\Users\19156\Desktop\DualModeKeyboard\LIB\libCH57xBLE.a(gapbondmgr.o)
 .sbss.pGapBondCB
                0x000000002000537c        0x4 C:\Users\19156\Desktop\DualModeKeyboard\LIB\libCH57xBLE.a(gapbondmgr.o)
 .sbss.pGapCentBondCB
                0x0000000020005380        0x4 C:\Users\19156\Desktop\DualModeKeyboard\LIB\libCH57xBLE.a(gapbondmgr.o)
 .sbss.pGapPeriBondCB
                0x0000000020005384        0x4 C:\Users\19156\Desktop\DualModeKeyboard\LIB\libCH57xBLE.a(gapbondmgr.o)
 .sbss.service.4292
                0x0000000020005388        0x2 C:\Users\19156\Desktop\DualModeKeyboard\LIB\libCH57xBLE.a(gapbondmgr.o)
 *fill*         0x000000002000538a        0x2 
 .sbss.pGapRoles_AppCGs
                0x000000002000538c        0x4 C:\Users\19156\Desktop\DualModeKeyboard\LIB\libCH57xBLE.a(peripheral.o)
 .sbss.gapMaxScanRes
                0x0000000020005390        0x1 C:\Users\19156\Desktop\DualModeKeyboard\LIB\libCH57xBLE.a(role.o)
                0x0000000020005390                gapMaxScanRes
 .sbss.gapRole_AdvChanMap
                0x0000000020005391        0x1 C:\Users\19156\Desktop\DualModeKeyboard\LIB\libCH57xBLE.a(role.o)
                0x0000000020005391                gapRole_AdvChanMap
 *fill*         0x0000000020005392        0x2 
 .sbss.gapRole_AdvDirectAddr
                0x0000000020005394        0x6 C:\Users\19156\Desktop\DualModeKeyboard\LIB\libCH57xBLE.a(role.o)
                0x0000000020005394                gapRole_AdvDirectAddr
 .sbss.gapRole_AdvDirectType
                0x000000002000539a        0x1 C:\Users\19156\Desktop\DualModeKeyboard\LIB\libCH57xBLE.a(role.o)
                0x000000002000539a                gapRole_AdvDirectType
 .sbss.gapRole_AdvEventType
                0x000000002000539b        0x1 C:\Users\19156\Desktop\DualModeKeyboard\LIB\libCH57xBLE.a(role.o)
                0x000000002000539b                gapRole_AdvEventType
 .sbss.gapRole_AdvFilterPolicy
                0x000000002000539c        0x1 C:\Users\19156\Desktop\DualModeKeyboard\LIB\libCH57xBLE.a(role.o)
                0x000000002000539c                gapRole_AdvFilterPolicy
 *fill*         0x000000002000539d        0x3 
 .sbss.gapRole_AdvertData
                0x00000000200053a0        0x4 C:\Users\19156\Desktop\DualModeKeyboard\LIB\libCH57xBLE.a(role.o)
                0x00000000200053a0                gapRole_AdvertData
 .sbss.gapRole_MasterAndSlave
                0x00000000200053a4        0x1 C:\Users\19156\Desktop\DualModeKeyboard\LIB\libCH57xBLE.a(role.o)
                0x00000000200053a4                gapRole_MasterAndSlave
 *fill*         0x00000000200053a5        0x3 
 .sbss.gapRole_ScanRspData
                0x00000000200053a8        0x4 C:\Users\19156\Desktop\DualModeKeyboard\LIB\libCH57xBLE.a(role.o)
                0x00000000200053a8                gapRole_ScanRspData
 .sbss.gapRole_ScanRspDataLen
                0x00000000200053ac        0x1 C:\Users\19156\Desktop\DualModeKeyboard\LIB\libCH57xBLE.a(role.o)
                0x00000000200053ac                gapRole_ScanRspDataLen
 *fill*         0x00000000200053ad        0x3 
 .sbss.gapRole_bdAddr
                0x00000000200053b0        0x6 C:\Users\19156\Desktop\DualModeKeyboard\LIB\libCH57xBLE.a(role.o)
                0x00000000200053b0                gapRole_bdAddr
 .sbss.gapRole_profileRole
                0x00000000200053b6        0x1 C:\Users\19156\Desktop\DualModeKeyboard\LIB\libCH57xBLE.a(role.o)
                0x00000000200053b6                gapRole_profileRole
 *fill*         0x00000000200053b7        0x1 
 .sbss.gapRole_signCounter
                0x00000000200053b8        0x4 C:\Users\19156\Desktop\DualModeKeyboard\LIB\libCH57xBLE.a(role.o)
                0x00000000200053b8                gapRole_signCounter
 .sbss.gapRole_state
                0x00000000200053bc        0x4 C:\Users\19156\Desktop\DualModeKeyboard\LIB\libCH57xBLE.a(role.o)
                0x00000000200053bc                gapRole_state
 .sbss.MemCtlEnd
                0x00000000200053c0        0x4 C:\Users\19156\Desktop\DualModeKeyboard\LIB\libCH57xBLE.a(memory.o)
                0x00000000200053c0                MemCtlEnd
 .sbss.MemCtlPartition
                0x00000000200053c4        0x4 C:\Users\19156\Desktop\DualModeKeyboard\LIB\libCH57xBLE.a(memory.o)
                0x00000000200053c4                MemCtlPartition
 .sbss.MemCtlStart
                0x00000000200053c8        0x4 C:\Users\19156\Desktop\DualModeKeyboard\LIB\libCH57xBLE.a(memory.o)
                0x00000000200053c8                MemCtlStart
 .sbss.attClientNotifyTxCB
                0x00000000200053cc        0x4 C:\Users\19156\Desktop\DualModeKeyboard\LIB\libCH57xBLE.a(att.o)
                0x00000000200053cc                attClientNotifyTxCB
 .sbss.attServerNotifyTxCB
                0x00000000200053d0        0x4 C:\Users\19156\Desktop\DualModeKeyboard\LIB\libCH57xBLE.a(att.o)
                0x00000000200053d0                attServerNotifyTxCB
 .sbss.pfnAdvertiseEventCBs
                0x00000000200053d4        0x4 C:\Users\19156\Desktop\DualModeKeyboard\LIB\libCH57xBLE.a(ll_advertise.o)
                0x00000000200053d4                pfnAdvertiseEventCBs
 .sbss.pGapRoles_AppCGs
                0x00000000200053d8        0x4 C:\Users\19156\Desktop\DualModeKeyboard\LIB\libCH57xBLE.a(broadcaster.o)
                0x00000000200053d8                pGapRoles_AppCGs
 *(.gnu.linkonce.sb.*)
 *(.bss*)
 .bss.battLevelClientCharCfg
                0x00000000200053dc       0x10 ./Profile/battservice.o
 .bss.hidReportBootKeyInClientCharCfg
                0x00000000200053ec       0x10 ./Profile/hidkbdservice.o
 .bss.hidReportConsumerInClientCharCfg
                0x00000000200053fc       0x10 ./Profile/hidkbdservice.o
 .bss.hidReportKeyInClientCharCfg
                0x000000002000540c       0x10 ./Profile/hidkbdservice.o
 .bss.hidRptMap
                0x000000002000541c       0x40 ./Profile/hidkbdservice.o
 .bss.scanParamRefreshClientCharCfg
                0x000000002000545c       0x10 ./Profile/scanparamservice.o
 .bss.MEM_BUF   0x000000002000546c     0x1800 ./APP/MAIN.o
                0x000000002000546c                MEM_BUF
 .bss.EP0_Databuf
                0x0000000020006c6c       0xc0 ./APP/app_usb.o
                0x0000000020006c6c                EP0_Databuf
 .bss.EP1_Databuf
                0x0000000020006d2c       0x80 ./APP/app_usb.o
                0x0000000020006d2c                EP1_Databuf
 .bss.EP2_Databuf
                0x0000000020006dac       0x80 ./APP/app_usb.o
                0x0000000020006dac                EP2_Databuf
 .bss.EP3_Databuf
                0x0000000020006e2c       0x80 ./APP/app_usb.o
                0x0000000020006e2c                EP3_Databuf
 .bss.ble       0x0000000020006eac       0x3c C:\Users\19156\Desktop\DualModeKeyboard\LIB\libCH57xBLE.a(tmos.o)
                0x0000000020006eac                ble
 .bss.gTmosPara
                0x0000000020006ee8       0x24 C:\Users\19156\Desktop\DualModeKeyboard\LIB\libCH57xBLE.a(tmos.o)
                0x0000000020006ee8                gTmosPara
 .bss.pfnProcessCBs
                0x0000000020006f0c       0x1c C:\Users\19156\Desktop\DualModeKeyboard\LIB\libCH57xBLE.a(tmos.o)
                0x0000000020006f0c                pfnProcessCBs
 .bss.gapParameters
                0x0000000020006f28       0x34 C:\Users\19156\Desktop\DualModeKeyboard\LIB\libCH57xBLE.a(gap.o)
                0x0000000020006f28                gapParameters
 .bss.gapParams
                0x0000000020006f5c       0x20 C:\Users\19156\Desktop\DualModeKeyboard\LIB\libCH57xBLE.a(gap.o)
                0x0000000020006f5c                gapParams
 .bss.gapCentralCBs
                0x0000000020006f7c        0xc C:\Users\19156\Desktop\DualModeKeyboard\LIB\libCH57xBLE.a(gap_central.o)
                0x0000000020006f7c                gapCentralCBs
 .bss.gapPeripheralCBs
                0x0000000020006f88        0xc C:\Users\19156\Desktop\DualModeKeyboard\LIB\libCH57xBLE.a(gap_peripheral.o)
 .bss.deviceName
                0x0000000020006f94       0x16 C:\Users\19156\Desktop\DualModeKeyboard\LIB\libCH57xBLE.a(gapgattserver.o)
 *fill*         0x0000000020006faa        0x2 
 .bss.rsp       0x0000000020006fac       0x18 C:\Users\19156\Desktop\DualModeKeyboard\LIB\libCH57xBLE.a(gattservapp.o)
 .bss.l2capFixedChannels
                0x0000000020006fc4       0x30 C:\Users\19156\Desktop\DualModeKeyboard\LIB\libCH57xBLE.a(l2cap.o)
                0x0000000020006fc4                l2capFixedChannels
 .bss.linkCBs   0x0000000020006ff4       0x30 C:\Users\19156\Desktop\DualModeKeyboard\LIB\libCH57xBLE.a(linkdb.o)
                0x0000000020006ff4                linkCBs
 .bss.gBleIPPara
                0x0000000020007024       0x1c C:\Users\19156\Desktop\DualModeKeyboard\LIB\libCH57xBLE.a(ip.o)
                0x0000000020007024                gBleIPPara
 .bss.rfConfig  0x0000000020007040       0x20 C:\Users\19156\Desktop\DualModeKeyboard\LIB\libCH57xBLE.a(ip.o)
                0x0000000020007040                rfConfig
 .bss.rfInfo    0x0000000020007060       0x1c C:\Users\19156\Desktop\DualModeKeyboard\LIB\libCH57xBLE.a(rf_fh.o)
                0x0000000020007060                rfInfo
 .bss.gapBond_Cent_OOBData
                0x000000002000707c       0x10 C:\Users\19156\Desktop\DualModeKeyboard\LIB\libCH57xBLE.a(gapbondmgr.o)
 .bss.gapBond_Peri_OOBData
                0x000000002000708c       0x10 C:\Users\19156\Desktop\DualModeKeyboard\LIB\libCH57xBLE.a(gapbondmgr.o)
 .bss.gapRole_OldIRK
                0x000000002000709c       0x10 C:\Users\19156\Desktop\DualModeKeyboard\LIB\libCH57xBLE.a(peripheral.o)
 .bss.gapRole_OldSRK
                0x00000000200070ac       0x10 C:\Users\19156\Desktop\DualModeKeyboard\LIB\libCH57xBLE.a(peripheral.o)
 .bss.gapRole_IRK
                0x00000000200070bc       0x10 C:\Users\19156\Desktop\DualModeKeyboard\LIB\libCH57xBLE.a(role.o)
                0x00000000200070bc                gapRole_IRK
 .bss.gapRole_SRK
                0x00000000200070cc       0x10 C:\Users\19156\Desktop\DualModeKeyboard\LIB\libCH57xBLE.a(role.o)
                0x00000000200070cc                gapRole_SRK
 .bss.gBleLlPara
                0x00000000200070dc       0xac C:\Users\19156\Desktop\DualModeKeyboard\LIB\libCH57xBLE.a(ll.o)
                0x00000000200070dc                gBleLlPara
 *(.gnu.linkonce.b.*)
 *(COMMON*)
                0x0000000020007188                . = ALIGN (0x4)
                0x0000000020007188                PROVIDE (_ebss = .)
                [!provide]                        PROVIDE (_end = _ebss)
                [!provide]                        PROVIDE (end = .)

.stack          0x0000000020008000        0x0
                0x0000000020008000                . = ALIGN (0x4)
                0x0000000020008000                PROVIDE (_eusrstack = .)
OUTPUT(SDK.elf elf32-littleriscv)

.comment        0x0000000000000000       0x33
 .comment       0x0000000000000000       0x33 ./StdPeriphDriver/CH57x_adc.o
                                         0x34 (size before relaxing)
 .comment       0x0000000000000033       0x34 ./StdPeriphDriver/CH57x_clk.o
 .comment       0x0000000000000033       0x34 ./StdPeriphDriver/CH57x_gpio.o
 .comment       0x0000000000000033       0x34 ./StdPeriphDriver/CH57x_sys.o
 .comment       0x0000000000000033       0x34 ./StdPeriphDriver/CH57x_usbdev.o
 .comment       0x0000000000000033       0x34 ./Profile/battservice.o
 .comment       0x0000000000000033       0x34 ./Profile/devinfoservice.o
 .comment       0x0000000000000033       0x34 ./Profile/hiddev.o
 .comment       0x0000000000000033       0x34 ./Profile/hidkbdservice.o
 .comment       0x0000000000000033       0x34 ./Profile/scanparamservice.o
 .comment       0x0000000000000033       0x34 ./HAL/MCU.o
 .comment       0x0000000000000033       0x34 ./HAL/RTC.o
 .comment       0x0000000000000033       0x34 ./APP/MAIN.o
 .comment       0x0000000000000033       0x34 ./APP/app_ble.o
 .comment       0x0000000000000033       0x34 ./APP/app_usb.o
 .comment       0x0000000000000033       0x34 ./APP/keyin.o
 .comment       0x0000000000000033       0x34 ./APP/protocol.o
 .comment       0x0000000000000033       0x34 ./APP/usercfg.o
 .comment       0x0000000000000033       0x34 C:\Users\19156\Desktop\SRC\StdPeriphDriver\libISP573.a(ISP573.o)
 .comment       0x0000000000000033       0x34 C:\Users\19156\Desktop\DualModeKeyboard\LIB\libCH57xBLE.a(message.o)
 .comment       0x0000000000000033       0x34 C:\Users\19156\Desktop\DualModeKeyboard\LIB\libCH57xBLE.a(tmos.o)
 .comment       0x0000000000000033       0x34 C:\Users\19156\Desktop\DualModeKeyboard\LIB\libCH57xBLE.a(tmos_hw.o)
 .comment       0x0000000000000033       0x34 C:\Users\19156\Desktop\DualModeKeyboard\LIB\libCH57xBLE.a(tmos_snv.o)
 .comment       0x0000000000000033       0x34 C:\Users\19156\Desktop\DualModeKeyboard\LIB\libCH57xBLE.a(gap.o)
 .comment       0x0000000000000033       0x34 C:\Users\19156\Desktop\DualModeKeyboard\LIB\libCH57xBLE.a(gap_central.o)
 .comment       0x0000000000000033       0x34 C:\Users\19156\Desktop\DualModeKeyboard\LIB\libCH57xBLE.a(gap_peripheral.o)
 .comment       0x0000000000000033       0x34 C:\Users\19156\Desktop\DualModeKeyboard\LIB\libCH57xBLE.a(gapgattserver.o)
 .comment       0x0000000000000033       0x34 C:\Users\19156\Desktop\DualModeKeyboard\LIB\libCH57xBLE.a(gatt.o)
 .comment       0x0000000000000033       0x34 C:\Users\19156\Desktop\DualModeKeyboard\LIB\libCH57xBLE.a(gatt_uuid.o)
 .comment       0x0000000000000033       0x34 C:\Users\19156\Desktop\DualModeKeyboard\LIB\libCH57xBLE.a(gattservapp.o)
 .comment       0x0000000000000033       0x34 C:\Users\19156\Desktop\DualModeKeyboard\LIB\libCH57xBLE.a(l2cap.o)
 .comment       0x0000000000000033       0x34 C:\Users\19156\Desktop\DualModeKeyboard\LIB\libCH57xBLE.a(l2cap_input.o)
 .comment       0x0000000000000033       0x34 C:\Users\19156\Desktop\DualModeKeyboard\LIB\libCH57xBLE.a(l2cap_output.o)
 .comment       0x0000000000000033       0x34 C:\Users\19156\Desktop\DualModeKeyboard\LIB\libCH57xBLE.a(l2cap_sdu.o)
 .comment       0x0000000000000033       0x34 C:\Users\19156\Desktop\DualModeKeyboard\LIB\libCH57xBLE.a(linkdb.o)
 .comment       0x0000000000000033       0x34 C:\Users\19156\Desktop\DualModeKeyboard\LIB\libCH57xBLE.a(sm.o)
 .comment       0x0000000000000033       0x34 C:\Users\19156\Desktop\DualModeKeyboard\LIB\libCH57xBLE.a(host_input.o)
 .comment       0x0000000000000033       0x34 C:\Users\19156\Desktop\DualModeKeyboard\LIB\libCH57xBLE.a(host_output.o)
 .comment       0x0000000000000033       0x34 C:\Users\19156\Desktop\DualModeKeyboard\LIB\libCH57xBLE.a(ll_connect.o)
 .comment       0x0000000000000033       0x34 C:\Users\19156\Desktop\DualModeKeyboard\LIB\libCH57xBLE.a(ll_core.o)
 .comment       0x0000000000000033       0x34 C:\Users\19156\Desktop\DualModeKeyboard\LIB\libCH57xBLE.a(ll_hop.o)
 .comment       0x0000000000000033       0x34 C:\Users\19156\Desktop\DualModeKeyboard\LIB\libCH57xBLE.a(ll_master.o)
 .comment       0x0000000000000033       0x34 C:\Users\19156\Desktop\DualModeKeyboard\LIB\libCH57xBLE.a(ll_pdu.o)
 .comment       0x0000000000000033       0x34 C:\Users\19156\Desktop\DualModeKeyboard\LIB\libCH57xBLE.a(ll_report.o)
 .comment       0x0000000000000033       0x34 C:\Users\19156\Desktop\DualModeKeyboard\LIB\libCH57xBLE.a(ll_scan.o)
 .comment       0x0000000000000033       0x34 C:\Users\19156\Desktop\DualModeKeyboard\LIB\libCH57xBLE.a(ll_slave.o)
 .comment       0x0000000000000033       0x34 C:\Users\19156\Desktop\DualModeKeyboard\LIB\libCH57xBLE.a(ll_whitelist.o)
 .comment       0x0000000000000033       0x34 C:\Users\19156\Desktop\DualModeKeyboard\LIB\libCH57xBLE.a(aes.o)
 .comment       0x0000000000000033       0x34 C:\Users\19156\Desktop\DualModeKeyboard\LIB\libCH57xBLE.a(bb.o)
 .comment       0x0000000000000033       0x34 C:\Users\19156\Desktop\DualModeKeyboard\LIB\libCH57xBLE.a(dma.o)
 .comment       0x0000000000000033       0x34 C:\Users\19156\Desktop\DualModeKeyboard\LIB\libCH57xBLE.a(ip.o)
 .comment       0x0000000000000033       0x34 C:\Users\19156\Desktop\DualModeKeyboard\LIB\libCH57xBLE.a(lle.o)
 .comment       0x0000000000000033       0x34 C:\Users\19156\Desktop\DualModeKeyboard\LIB\libCH57xBLE.a(rf_fh.o)
 .comment       0x0000000000000033       0x34 C:\Users\19156\Desktop\DualModeKeyboard\LIB\libCH57xBLE.a(rfend.o)
 .comment       0x0000000000000033       0x34 C:\Users\19156\Desktop\DualModeKeyboard\LIB\libCH57xBLE.a(api_c.o)
 .comment       0x0000000000000033       0x34 C:\Users\19156\Desktop\DualModeKeyboard\LIB\libCH57xBLE.a(ctl_input.o)
 .comment       0x0000000000000033       0x34 C:\Users\19156\Desktop\DualModeKeyboard\LIB\libCH57xBLE.a(ctl_output.o)
 .comment       0x0000000000000033       0x34 C:\Users\19156\Desktop\DualModeKeyboard\LIB\libCH57xBLE.a(gapbondmgr.o)
 .comment       0x0000000000000033       0x34 C:\Users\19156\Desktop\DualModeKeyboard\LIB\libCH57xBLE.a(peripheral.o)
 .comment       0x0000000000000033       0x34 C:\Users\19156\Desktop\DualModeKeyboard\LIB\libCH57xBLE.a(role.o)
 .comment       0x0000000000000033       0x34 C:\Users\19156\Desktop\DualModeKeyboard\LIB\libCH57xBLE.a(memory.o)
 .comment       0x0000000000000033       0x34 C:\Users\19156\Desktop\DualModeKeyboard\LIB\libCH57xBLE.a(att.o)
 .comment       0x0000000000000033       0x34 C:\Users\19156\Desktop\DualModeKeyboard\LIB\libCH57xBLE.a(att_server.o)
 .comment       0x0000000000000033       0x34 C:\Users\19156\Desktop\DualModeKeyboard\LIB\libCH57xBLE.a(ll.o)
 .comment       0x0000000000000033       0x34 C:\Users\19156\Desktop\DualModeKeyboard\LIB\libCH57xBLE.a(ll_advertise.o)
 .comment       0x0000000000000033       0x34 C:\Users\19156\Desktop\DualModeKeyboard\LIB\libCH57xBLE.a(ll_initiate.o)
 .comment       0x0000000000000033       0x34 C:\Users\19156\Desktop\DualModeKeyboard\LIB\libCH57xBLE.a(ll_resolvinglist.o)
 .comment       0x0000000000000033       0x34 C:\Users\19156\Desktop\DualModeKeyboard\LIB\libCH57xBLE.a(broadcaster.o)
 .comment       0x0000000000000033       0x34 C:\Users\19156\Desktop\DualModeKeyboard\LIB\libCH57xBLE.a(ll_address.o)
